
vrs_cvicenie_10.elf:     file format elf32-littlearm

Sections:
Idx Name          Size      VMA       LMA       File off  Algn
  0 .isr_vector   00000188  08000000  08000000  00010000  2**0
                  CONTENTS, ALLOC, LOAD, READONLY, DATA
  1 .text         00002bfc  08000188  08000188  00010188  2**2
                  CONTENTS, ALLOC, LOAD, READONLY, CODE
  2 .rodata       0000014c  08002d84  08002d84  00012d84  2**2
                  CONTENTS, ALLOC, LOAD, READONLY, DATA
  3 .ARM.extab    00000000  08002ed0  08002ed0  00020068  2**0
                  CONTENTS
  4 .ARM          00000000  08002ed0  08002ed0  00020068  2**0
                  CONTENTS
  5 .preinit_array 00000000  08002ed0  08002ed0  00020068  2**0
                  CONTENTS, ALLOC, LOAD, DATA
  6 .init_array   00000004  08002ed0  08002ed0  00012ed0  2**2
                  CONTENTS, ALLOC, LOAD, DATA
  7 .fini_array   00000004  08002ed4  08002ed4  00012ed4  2**2
                  CONTENTS, ALLOC, LOAD, DATA
  8 .data         00000068  20000000  08002ed8  00020000  2**2
                  CONTENTS, ALLOC, LOAD, DATA
  9 .ccmram       00000000  10000000  10000000  00020068  2**0
                  CONTENTS
 10 .bss          00000104  20000068  20000068  00020068  2**2
                  ALLOC
 11 ._user_heap_stack 00000604  2000016c  2000016c  00020068  2**0
                  ALLOC
 12 .ARM.attributes 00000030  00000000  00000000  00020068  2**0
                  CONTENTS, READONLY
 13 .debug_info   0000adda  00000000  00000000  00020098  2**0
                  CONTENTS, READONLY, DEBUGGING, OCTETS
 14 .debug_abbrev 00001d7c  00000000  00000000  0002ae72  2**0
                  CONTENTS, READONLY, DEBUGGING, OCTETS
 15 .debug_aranges 00000830  00000000  00000000  0002cbf0  2**3
                  CONTENTS, READONLY, DEBUGGING, OCTETS
 16 .debug_ranges 00000768  00000000  00000000  0002d420  2**3
                  CONTENTS, READONLY, DEBUGGING, OCTETS
 17 .debug_macro  0001738f  00000000  00000000  0002db88  2**0
                  CONTENTS, READONLY, DEBUGGING, OCTETS
 18 .debug_line   00006cce  00000000  00000000  00044f17  2**0
                  CONTENTS, READONLY, DEBUGGING, OCTETS
 19 .debug_str    000791bd  00000000  00000000  0004bbe5  2**0
                  CONTENTS, READONLY, DEBUGGING, OCTETS
 20 .comment      00000053  00000000  00000000  000c4da2  2**0
                  CONTENTS, READONLY
 21 .debug_frame  00002234  00000000  00000000  000c4df8  2**2
                  CONTENTS, READONLY, DEBUGGING, OCTETS

Disassembly of section .text:

08000188 <__do_global_dtors_aux>:
 8000188:	b510      	push	{r4, lr}
 800018a:	4c05      	ldr	r4, [pc, #20]	; (80001a0 <__do_global_dtors_aux+0x18>)
 800018c:	7823      	ldrb	r3, [r4, #0]
 800018e:	b933      	cbnz	r3, 800019e <__do_global_dtors_aux+0x16>
 8000190:	4b04      	ldr	r3, [pc, #16]	; (80001a4 <__do_global_dtors_aux+0x1c>)
 8000192:	b113      	cbz	r3, 800019a <__do_global_dtors_aux+0x12>
 8000194:	4804      	ldr	r0, [pc, #16]	; (80001a8 <__do_global_dtors_aux+0x20>)
 8000196:	f3af 8000 	nop.w
 800019a:	2301      	movs	r3, #1
 800019c:	7023      	strb	r3, [r4, #0]
 800019e:	bd10      	pop	{r4, pc}
 80001a0:	20000068 	.word	0x20000068
 80001a4:	00000000 	.word	0x00000000
 80001a8:	08002d6c 	.word	0x08002d6c

080001ac <frame_dummy>:
 80001ac:	b508      	push	{r3, lr}
 80001ae:	4b03      	ldr	r3, [pc, #12]	; (80001bc <frame_dummy+0x10>)
 80001b0:	b11b      	cbz	r3, 80001ba <frame_dummy+0xe>
 80001b2:	4903      	ldr	r1, [pc, #12]	; (80001c0 <frame_dummy+0x14>)
 80001b4:	4803      	ldr	r0, [pc, #12]	; (80001c4 <frame_dummy+0x18>)
 80001b6:	f3af 8000 	nop.w
 80001ba:	bd08      	pop	{r3, pc}
 80001bc:	00000000 	.word	0x00000000
 80001c0:	2000006c 	.word	0x2000006c
 80001c4:	08002d6c 	.word	0x08002d6c

080001c8 <__NVIC_GetPriorityGrouping>:
  \brief   Get Priority Grouping
  \details Reads the priority grouping field from the NVIC Interrupt Controller.
  \return                Priority grouping field (SCB->AIRCR [10:8] PRIGROUP field).
 */
__STATIC_INLINE uint32_t __NVIC_GetPriorityGrouping(void)
{
 80001c8:	b480      	push	{r7}
 80001ca:	af00      	add	r7, sp, #0
  return ((uint32_t)((SCB->AIRCR & SCB_AIRCR_PRIGROUP_Msk) >> SCB_AIRCR_PRIGROUP_Pos));
 80001cc:	4b04      	ldr	r3, [pc, #16]	; (80001e0 <__NVIC_GetPriorityGrouping+0x18>)
 80001ce:	68db      	ldr	r3, [r3, #12]
 80001d0:	0a1b      	lsrs	r3, r3, #8
 80001d2:	f003 0307 	and.w	r3, r3, #7
}
 80001d6:	4618      	mov	r0, r3
 80001d8:	46bd      	mov	sp, r7
 80001da:	f85d 7b04 	ldr.w	r7, [sp], #4
 80001de:	4770      	bx	lr
 80001e0:	e000ed00 	.word	0xe000ed00

080001e4 <__NVIC_EnableIRQ>:
  \details Enables a device specific interrupt in the NVIC interrupt controller.
  \param [in]      IRQn  Device specific interrupt number.
  \note    IRQn must not be negative.
 */
__STATIC_INLINE void __NVIC_EnableIRQ(IRQn_Type IRQn)
{
 80001e4:	b480      	push	{r7}
 80001e6:	b083      	sub	sp, #12
 80001e8:	af00      	add	r7, sp, #0
 80001ea:	4603      	mov	r3, r0
 80001ec:	71fb      	strb	r3, [r7, #7]
  if ((int32_t)(IRQn) >= 0)
 80001ee:	f997 3007 	ldrsb.w	r3, [r7, #7]
 80001f2:	2b00      	cmp	r3, #0
 80001f4:	db0b      	blt.n	800020e <__NVIC_EnableIRQ+0x2a>
  {
    NVIC->ISER[(((uint32_t)IRQn) >> 5UL)] = (uint32_t)(1UL << (((uint32_t)IRQn) & 0x1FUL));
 80001f6:	79fb      	ldrb	r3, [r7, #7]
 80001f8:	f003 021f 	and.w	r2, r3, #31
 80001fc:	4907      	ldr	r1, [pc, #28]	; (800021c <__NVIC_EnableIRQ+0x38>)
 80001fe:	f997 3007 	ldrsb.w	r3, [r7, #7]
 8000202:	095b      	lsrs	r3, r3, #5
 8000204:	2001      	movs	r0, #1
 8000206:	fa00 f202 	lsl.w	r2, r0, r2
 800020a:	f841 2023 	str.w	r2, [r1, r3, lsl #2]
  }
}
 800020e:	bf00      	nop
 8000210:	370c      	adds	r7, #12
 8000212:	46bd      	mov	sp, r7
 8000214:	f85d 7b04 	ldr.w	r7, [sp], #4
 8000218:	4770      	bx	lr
 800021a:	bf00      	nop
 800021c:	e000e100 	.word	0xe000e100

08000220 <__NVIC_SetPriority>:
  \param [in]      IRQn  Interrupt number.
  \param [in]  priority  Priority to set.
  \note    The priority cannot be set for every processor exception.
 */
__STATIC_INLINE void __NVIC_SetPriority(IRQn_Type IRQn, uint32_t priority)
{
 8000220:	b480      	push	{r7}
 8000222:	b083      	sub	sp, #12
 8000224:	af00      	add	r7, sp, #0
 8000226:	4603      	mov	r3, r0
 8000228:	6039      	str	r1, [r7, #0]
 800022a:	71fb      	strb	r3, [r7, #7]
  if ((int32_t)(IRQn) >= 0)
 800022c:	f997 3007 	ldrsb.w	r3, [r7, #7]
 8000230:	2b00      	cmp	r3, #0
 8000232:	db0a      	blt.n	800024a <__NVIC_SetPriority+0x2a>
  {
    NVIC->IP[((uint32_t)IRQn)]               = (uint8_t)((priority << (8U - __NVIC_PRIO_BITS)) & (uint32_t)0xFFUL);
 8000234:	683b      	ldr	r3, [r7, #0]
 8000236:	b2da      	uxtb	r2, r3
 8000238:	490c      	ldr	r1, [pc, #48]	; (800026c <__NVIC_SetPriority+0x4c>)
 800023a:	f997 3007 	ldrsb.w	r3, [r7, #7]
 800023e:	0112      	lsls	r2, r2, #4
 8000240:	b2d2      	uxtb	r2, r2
 8000242:	440b      	add	r3, r1
 8000244:	f883 2300 	strb.w	r2, [r3, #768]	; 0x300
  }
  else
  {
    SCB->SHP[(((uint32_t)IRQn) & 0xFUL)-4UL] = (uint8_t)((priority << (8U - __NVIC_PRIO_BITS)) & (uint32_t)0xFFUL);
  }
}
 8000248:	e00a      	b.n	8000260 <__NVIC_SetPriority+0x40>
    SCB->SHP[(((uint32_t)IRQn) & 0xFUL)-4UL] = (uint8_t)((priority << (8U - __NVIC_PRIO_BITS)) & (uint32_t)0xFFUL);
 800024a:	683b      	ldr	r3, [r7, #0]
 800024c:	b2da      	uxtb	r2, r3
 800024e:	4908      	ldr	r1, [pc, #32]	; (8000270 <__NVIC_SetPriority+0x50>)
 8000250:	79fb      	ldrb	r3, [r7, #7]
 8000252:	f003 030f 	and.w	r3, r3, #15
 8000256:	3b04      	subs	r3, #4
 8000258:	0112      	lsls	r2, r2, #4
 800025a:	b2d2      	uxtb	r2, r2
 800025c:	440b      	add	r3, r1
 800025e:	761a      	strb	r2, [r3, #24]
}
 8000260:	bf00      	nop
 8000262:	370c      	adds	r7, #12
 8000264:	46bd      	mov	sp, r7
 8000266:	f85d 7b04 	ldr.w	r7, [sp], #4
 800026a:	4770      	bx	lr
 800026c:	e000e100 	.word	0xe000e100
 8000270:	e000ed00 	.word	0xe000ed00

08000274 <NVIC_EncodePriority>:
  \param [in]   PreemptPriority  Preemptive priority value (starting from 0).
  \param [in]       SubPriority  Subpriority value (starting from 0).
  \return                        Encoded priority. Value can be used in the function \ref NVIC_SetPriority().
 */
__STATIC_INLINE uint32_t NVIC_EncodePriority (uint32_t PriorityGroup, uint32_t PreemptPriority, uint32_t SubPriority)
{
 8000274:	b480      	push	{r7}
 8000276:	b089      	sub	sp, #36	; 0x24
 8000278:	af00      	add	r7, sp, #0
 800027a:	60f8      	str	r0, [r7, #12]
 800027c:	60b9      	str	r1, [r7, #8]
 800027e:	607a      	str	r2, [r7, #4]
  uint32_t PriorityGroupTmp = (PriorityGroup & (uint32_t)0x07UL);   /* only values 0..7 are used          */
 8000280:	68fb      	ldr	r3, [r7, #12]
 8000282:	f003 0307 	and.w	r3, r3, #7
 8000286:	61fb      	str	r3, [r7, #28]
  uint32_t PreemptPriorityBits;
  uint32_t SubPriorityBits;

  PreemptPriorityBits = ((7UL - PriorityGroupTmp) > (uint32_t)(__NVIC_PRIO_BITS)) ? (uint32_t)(__NVIC_PRIO_BITS) : (uint32_t)(7UL - PriorityGroupTmp);
 8000288:	69fb      	ldr	r3, [r7, #28]
 800028a:	f1c3 0307 	rsb	r3, r3, #7
 800028e:	2b04      	cmp	r3, #4
 8000290:	bf28      	it	cs
 8000292:	2304      	movcs	r3, #4
 8000294:	61bb      	str	r3, [r7, #24]
  SubPriorityBits     = ((PriorityGroupTmp + (uint32_t)(__NVIC_PRIO_BITS)) < (uint32_t)7UL) ? (uint32_t)0UL : (uint32_t)((PriorityGroupTmp - 7UL) + (uint32_t)(__NVIC_PRIO_BITS));
 8000296:	69fb      	ldr	r3, [r7, #28]
 8000298:	3304      	adds	r3, #4
 800029a:	2b06      	cmp	r3, #6
 800029c:	d902      	bls.n	80002a4 <NVIC_EncodePriority+0x30>
 800029e:	69fb      	ldr	r3, [r7, #28]
 80002a0:	3b03      	subs	r3, #3
 80002a2:	e000      	b.n	80002a6 <NVIC_EncodePriority+0x32>
 80002a4:	2300      	movs	r3, #0
 80002a6:	617b      	str	r3, [r7, #20]

  return (
           ((PreemptPriority & (uint32_t)((1UL << (PreemptPriorityBits)) - 1UL)) << SubPriorityBits) |
 80002a8:	f04f 32ff 	mov.w	r2, #4294967295
 80002ac:	69bb      	ldr	r3, [r7, #24]
 80002ae:	fa02 f303 	lsl.w	r3, r2, r3
 80002b2:	43da      	mvns	r2, r3
 80002b4:	68bb      	ldr	r3, [r7, #8]
 80002b6:	401a      	ands	r2, r3
 80002b8:	697b      	ldr	r3, [r7, #20]
 80002ba:	409a      	lsls	r2, r3
           ((SubPriority     & (uint32_t)((1UL << (SubPriorityBits    )) - 1UL)))
 80002bc:	f04f 31ff 	mov.w	r1, #4294967295
 80002c0:	697b      	ldr	r3, [r7, #20]
 80002c2:	fa01 f303 	lsl.w	r3, r1, r3
 80002c6:	43d9      	mvns	r1, r3
 80002c8:	687b      	ldr	r3, [r7, #4]
 80002ca:	400b      	ands	r3, r1
           ((PreemptPriority & (uint32_t)((1UL << (PreemptPriorityBits)) - 1UL)) << SubPriorityBits) |
 80002cc:	4313      	orrs	r3, r2
         );
}
 80002ce:	4618      	mov	r0, r3
 80002d0:	3724      	adds	r7, #36	; 0x24
 80002d2:	46bd      	mov	sp, r7
 80002d4:	f85d 7b04 	ldr.w	r7, [sp], #4
 80002d8:	4770      	bx	lr
	...

080002dc <LL_AHB1_GRP1_EnableClock>:
  *
  *         (*) value not defined in all devices.
  * @retval None
*/
__STATIC_INLINE void LL_AHB1_GRP1_EnableClock(uint32_t Periphs)
{
 80002dc:	b480      	push	{r7}
 80002de:	b085      	sub	sp, #20
 80002e0:	af00      	add	r7, sp, #0
 80002e2:	6078      	str	r0, [r7, #4]
  __IO uint32_t tmpreg;
  SET_BIT(RCC->AHBENR, Periphs);
 80002e4:	4b08      	ldr	r3, [pc, #32]	; (8000308 <LL_AHB1_GRP1_EnableClock+0x2c>)
 80002e6:	695a      	ldr	r2, [r3, #20]
 80002e8:	4907      	ldr	r1, [pc, #28]	; (8000308 <LL_AHB1_GRP1_EnableClock+0x2c>)
 80002ea:	687b      	ldr	r3, [r7, #4]
 80002ec:	4313      	orrs	r3, r2
 80002ee:	614b      	str	r3, [r1, #20]
  /* Delay after an RCC peripheral clock enabling */
  tmpreg = READ_BIT(RCC->AHBENR, Periphs);
 80002f0:	4b05      	ldr	r3, [pc, #20]	; (8000308 <LL_AHB1_GRP1_EnableClock+0x2c>)
 80002f2:	695a      	ldr	r2, [r3, #20]
 80002f4:	687b      	ldr	r3, [r7, #4]
 80002f6:	4013      	ands	r3, r2
 80002f8:	60fb      	str	r3, [r7, #12]
  (void)tmpreg;
 80002fa:	68fb      	ldr	r3, [r7, #12]
}
 80002fc:	bf00      	nop
 80002fe:	3714      	adds	r7, #20
 8000300:	46bd      	mov	sp, r7
 8000302:	f85d 7b04 	ldr.w	r7, [sp], #4
 8000306:	4770      	bx	lr
 8000308:	40021000 	.word	0x40021000

0800030c <MX_DMA_Init>:

/**
  * Enable DMA controller clock
  */
void MX_DMA_Init(void)
{
 800030c:	b580      	push	{r7, lr}
 800030e:	af00      	add	r7, sp, #0

  /* Init with LL driver */
  /* DMA controller clock enable */
  LL_AHB1_GRP1_EnableClock(LL_AHB1_GRP1_PERIPH_DMA1);
 8000310:	2001      	movs	r0, #1
 8000312:	f7ff ffe3 	bl	80002dc <LL_AHB1_GRP1_EnableClock>

  /* DMA interrupt init */
  /* DMA1_Channel6_IRQn interrupt configuration */
  NVIC_SetPriority(DMA1_Channel6_IRQn, NVIC_EncodePriority(NVIC_GetPriorityGrouping(),0, 0));
 8000316:	f7ff ff57 	bl	80001c8 <__NVIC_GetPriorityGrouping>
 800031a:	4603      	mov	r3, r0
 800031c:	2200      	movs	r2, #0
 800031e:	2100      	movs	r1, #0
 8000320:	4618      	mov	r0, r3
 8000322:	f7ff ffa7 	bl	8000274 <NVIC_EncodePriority>
 8000326:	4603      	mov	r3, r0
 8000328:	4619      	mov	r1, r3
 800032a:	2010      	movs	r0, #16
 800032c:	f7ff ff78 	bl	8000220 <__NVIC_SetPriority>
  NVIC_EnableIRQ(DMA1_Channel6_IRQn);
 8000330:	2010      	movs	r0, #16
 8000332:	f7ff ff57 	bl	80001e4 <__NVIC_EnableIRQ>


}
 8000336:	bf00      	nop
 8000338:	bd80      	pop	{r7, pc}
	...

0800033c <LL_AHB1_GRP1_EnableClock>:
{
 800033c:	b480      	push	{r7}
 800033e:	b085      	sub	sp, #20
 8000340:	af00      	add	r7, sp, #0
 8000342:	6078      	str	r0, [r7, #4]
  SET_BIT(RCC->AHBENR, Periphs);
 8000344:	4b08      	ldr	r3, [pc, #32]	; (8000368 <LL_AHB1_GRP1_EnableClock+0x2c>)
 8000346:	695a      	ldr	r2, [r3, #20]
 8000348:	4907      	ldr	r1, [pc, #28]	; (8000368 <LL_AHB1_GRP1_EnableClock+0x2c>)
 800034a:	687b      	ldr	r3, [r7, #4]
 800034c:	4313      	orrs	r3, r2
 800034e:	614b      	str	r3, [r1, #20]
  tmpreg = READ_BIT(RCC->AHBENR, Periphs);
 8000350:	4b05      	ldr	r3, [pc, #20]	; (8000368 <LL_AHB1_GRP1_EnableClock+0x2c>)
 8000352:	695a      	ldr	r2, [r3, #20]
 8000354:	687b      	ldr	r3, [r7, #4]
 8000356:	4013      	ands	r3, r2
 8000358:	60fb      	str	r3, [r7, #12]
  (void)tmpreg;
 800035a:	68fb      	ldr	r3, [r7, #12]
}
 800035c:	bf00      	nop
 800035e:	3714      	adds	r7, #20
 8000360:	46bd      	mov	sp, r7
 8000362:	f85d 7b04 	ldr.w	r7, [sp], #4
 8000366:	4770      	bx	lr
 8000368:	40021000 	.word	0x40021000

0800036c <MX_GPIO_Init>:
        * Output
        * EVENT_OUT
        * EXTI
*/
void MX_GPIO_Init(void)
{
 800036c:	b580      	push	{r7, lr}
 800036e:	af00      	add	r7, sp, #0

  /* GPIO Ports Clock Enable */
  LL_AHB1_GRP1_EnableClock(LL_AHB1_GRP1_PERIPH_GPIOF);
 8000370:	f44f 0080 	mov.w	r0, #4194304	; 0x400000
 8000374:	f7ff ffe2 	bl	800033c <LL_AHB1_GRP1_EnableClock>
  LL_AHB1_GRP1_EnableClock(LL_AHB1_GRP1_PERIPH_GPIOA);
 8000378:	f44f 3000 	mov.w	r0, #131072	; 0x20000
 800037c:	f7ff ffde 	bl	800033c <LL_AHB1_GRP1_EnableClock>

}
 8000380:	bf00      	nop
 8000382:	bd80      	pop	{r7, pc}

08000384 <__NVIC_SetPriorityGrouping>:
{
 8000384:	b480      	push	{r7}
 8000386:	b085      	sub	sp, #20
 8000388:	af00      	add	r7, sp, #0
 800038a:	6078      	str	r0, [r7, #4]
  uint32_t PriorityGroupTmp = (PriorityGroup & (uint32_t)0x07UL);             /* only values 0..7 are used          */
 800038c:	687b      	ldr	r3, [r7, #4]
 800038e:	f003 0307 	and.w	r3, r3, #7
 8000392:	60fb      	str	r3, [r7, #12]
  reg_value  =  SCB->AIRCR;                                                   /* read old register configuration    */
 8000394:	4b0c      	ldr	r3, [pc, #48]	; (80003c8 <__NVIC_SetPriorityGrouping+0x44>)
 8000396:	68db      	ldr	r3, [r3, #12]
 8000398:	60bb      	str	r3, [r7, #8]
  reg_value &= ~((uint32_t)(SCB_AIRCR_VECTKEY_Msk | SCB_AIRCR_PRIGROUP_Msk)); /* clear bits to change               */
 800039a:	68ba      	ldr	r2, [r7, #8]
 800039c:	f64f 03ff 	movw	r3, #63743	; 0xf8ff
 80003a0:	4013      	ands	r3, r2
 80003a2:	60bb      	str	r3, [r7, #8]
                (PriorityGroupTmp << SCB_AIRCR_PRIGROUP_Pos)  );              /* Insert write key and priority group */
 80003a4:	68fb      	ldr	r3, [r7, #12]
 80003a6:	021a      	lsls	r2, r3, #8
                ((uint32_t)0x5FAUL << SCB_AIRCR_VECTKEY_Pos) |
 80003a8:	68bb      	ldr	r3, [r7, #8]
 80003aa:	4313      	orrs	r3, r2
  reg_value  =  (reg_value                                   |
 80003ac:	f043 63bf 	orr.w	r3, r3, #100139008	; 0x5f80000
 80003b0:	f443 3300 	orr.w	r3, r3, #131072	; 0x20000
 80003b4:	60bb      	str	r3, [r7, #8]
  SCB->AIRCR =  reg_value;
 80003b6:	4a04      	ldr	r2, [pc, #16]	; (80003c8 <__NVIC_SetPriorityGrouping+0x44>)
 80003b8:	68bb      	ldr	r3, [r7, #8]
 80003ba:	60d3      	str	r3, [r2, #12]
}
 80003bc:	bf00      	nop
 80003be:	3714      	adds	r7, #20
 80003c0:	46bd      	mov	sp, r7
 80003c2:	f85d 7b04 	ldr.w	r7, [sp], #4
 80003c6:	4770      	bx	lr
 80003c8:	e000ed00 	.word	0xe000ed00

080003cc <LL_RCC_HSI_Enable>:
  * @brief  Enable HSI oscillator
  * @rmtoll CR           HSION         LL_RCC_HSI_Enable
  * @retval None
  */
__STATIC_INLINE void LL_RCC_HSI_Enable(void)
{
 80003cc:	b480      	push	{r7}
 80003ce:	af00      	add	r7, sp, #0
  SET_BIT(RCC->CR, RCC_CR_HSION);
 80003d0:	4b05      	ldr	r3, [pc, #20]	; (80003e8 <LL_RCC_HSI_Enable+0x1c>)
 80003d2:	681b      	ldr	r3, [r3, #0]
 80003d4:	4a04      	ldr	r2, [pc, #16]	; (80003e8 <LL_RCC_HSI_Enable+0x1c>)
 80003d6:	f043 0301 	orr.w	r3, r3, #1
 80003da:	6013      	str	r3, [r2, #0]
}
 80003dc:	bf00      	nop
 80003de:	46bd      	mov	sp, r7
 80003e0:	f85d 7b04 	ldr.w	r7, [sp], #4
 80003e4:	4770      	bx	lr
 80003e6:	bf00      	nop
 80003e8:	40021000 	.word	0x40021000

080003ec <LL_RCC_HSI_IsReady>:
  * @brief  Check if HSI clock is ready
  * @rmtoll CR           HSIRDY        LL_RCC_HSI_IsReady
  * @retval State of bit (1 or 0).
  */
__STATIC_INLINE uint32_t LL_RCC_HSI_IsReady(void)
{
 80003ec:	b480      	push	{r7}
 80003ee:	af00      	add	r7, sp, #0
  return (READ_BIT(RCC->CR, RCC_CR_HSIRDY) == (RCC_CR_HSIRDY));
 80003f0:	4b06      	ldr	r3, [pc, #24]	; (800040c <LL_RCC_HSI_IsReady+0x20>)
 80003f2:	681b      	ldr	r3, [r3, #0]
 80003f4:	f003 0302 	and.w	r3, r3, #2
 80003f8:	2b02      	cmp	r3, #2
 80003fa:	bf0c      	ite	eq
 80003fc:	2301      	moveq	r3, #1
 80003fe:	2300      	movne	r3, #0
 8000400:	b2db      	uxtb	r3, r3
}
 8000402:	4618      	mov	r0, r3
 8000404:	46bd      	mov	sp, r7
 8000406:	f85d 7b04 	ldr.w	r7, [sp], #4
 800040a:	4770      	bx	lr
 800040c:	40021000 	.word	0x40021000

08000410 <LL_RCC_HSI_SetCalibTrimming>:
  * @rmtoll CR        HSITRIM       LL_RCC_HSI_SetCalibTrimming
  * @param  Value between Min_Data = 0x00 and Max_Data = 0x1F
  * @retval None
  */
__STATIC_INLINE void LL_RCC_HSI_SetCalibTrimming(uint32_t Value)
{
 8000410:	b480      	push	{r7}
 8000412:	b083      	sub	sp, #12
 8000414:	af00      	add	r7, sp, #0
 8000416:	6078      	str	r0, [r7, #4]
  MODIFY_REG(RCC->CR, RCC_CR_HSITRIM, Value << RCC_CR_HSITRIM_Pos);
 8000418:	4b07      	ldr	r3, [pc, #28]	; (8000438 <LL_RCC_HSI_SetCalibTrimming+0x28>)
 800041a:	681b      	ldr	r3, [r3, #0]
 800041c:	f023 02f8 	bic.w	r2, r3, #248	; 0xf8
 8000420:	687b      	ldr	r3, [r7, #4]
 8000422:	00db      	lsls	r3, r3, #3
 8000424:	4904      	ldr	r1, [pc, #16]	; (8000438 <LL_RCC_HSI_SetCalibTrimming+0x28>)
 8000426:	4313      	orrs	r3, r2
 8000428:	600b      	str	r3, [r1, #0]
}
 800042a:	bf00      	nop
 800042c:	370c      	adds	r7, #12
 800042e:	46bd      	mov	sp, r7
 8000430:	f85d 7b04 	ldr.w	r7, [sp], #4
 8000434:	4770      	bx	lr
 8000436:	bf00      	nop
 8000438:	40021000 	.word	0x40021000

0800043c <LL_RCC_SetSysClkSource>:
  *         @arg @ref LL_RCC_SYS_CLKSOURCE_HSE
  *         @arg @ref LL_RCC_SYS_CLKSOURCE_PLL
  * @retval None
  */
__STATIC_INLINE void LL_RCC_SetSysClkSource(uint32_t Source)
{
 800043c:	b480      	push	{r7}
 800043e:	b083      	sub	sp, #12
 8000440:	af00      	add	r7, sp, #0
 8000442:	6078      	str	r0, [r7, #4]
  MODIFY_REG(RCC->CFGR, RCC_CFGR_SW, Source);
 8000444:	4b06      	ldr	r3, [pc, #24]	; (8000460 <LL_RCC_SetSysClkSource+0x24>)
 8000446:	685b      	ldr	r3, [r3, #4]
 8000448:	f023 0203 	bic.w	r2, r3, #3
 800044c:	4904      	ldr	r1, [pc, #16]	; (8000460 <LL_RCC_SetSysClkSource+0x24>)
 800044e:	687b      	ldr	r3, [r7, #4]
 8000450:	4313      	orrs	r3, r2
 8000452:	604b      	str	r3, [r1, #4]
}
 8000454:	bf00      	nop
 8000456:	370c      	adds	r7, #12
 8000458:	46bd      	mov	sp, r7
 800045a:	f85d 7b04 	ldr.w	r7, [sp], #4
 800045e:	4770      	bx	lr
 8000460:	40021000 	.word	0x40021000

08000464 <LL_RCC_GetSysClkSource>:
  *         @arg @ref LL_RCC_SYS_CLKSOURCE_STATUS_HSI
  *         @arg @ref LL_RCC_SYS_CLKSOURCE_STATUS_HSE
  *         @arg @ref LL_RCC_SYS_CLKSOURCE_STATUS_PLL
  */
__STATIC_INLINE uint32_t LL_RCC_GetSysClkSource(void)
{
 8000464:	b480      	push	{r7}
 8000466:	af00      	add	r7, sp, #0
  return (uint32_t)(READ_BIT(RCC->CFGR, RCC_CFGR_SWS));
 8000468:	4b04      	ldr	r3, [pc, #16]	; (800047c <LL_RCC_GetSysClkSource+0x18>)
 800046a:	685b      	ldr	r3, [r3, #4]
 800046c:	f003 030c 	and.w	r3, r3, #12
}
 8000470:	4618      	mov	r0, r3
 8000472:	46bd      	mov	sp, r7
 8000474:	f85d 7b04 	ldr.w	r7, [sp], #4
 8000478:	4770      	bx	lr
 800047a:	bf00      	nop
 800047c:	40021000 	.word	0x40021000

08000480 <LL_RCC_SetAHBPrescaler>:
  *         @arg @ref LL_RCC_SYSCLK_DIV_256
  *         @arg @ref LL_RCC_SYSCLK_DIV_512
  * @retval None
  */
__STATIC_INLINE void LL_RCC_SetAHBPrescaler(uint32_t Prescaler)
{
 8000480:	b480      	push	{r7}
 8000482:	b083      	sub	sp, #12
 8000484:	af00      	add	r7, sp, #0
 8000486:	6078      	str	r0, [r7, #4]
  MODIFY_REG(RCC->CFGR, RCC_CFGR_HPRE, Prescaler);
 8000488:	4b06      	ldr	r3, [pc, #24]	; (80004a4 <LL_RCC_SetAHBPrescaler+0x24>)
 800048a:	685b      	ldr	r3, [r3, #4]
 800048c:	f023 02f0 	bic.w	r2, r3, #240	; 0xf0
 8000490:	4904      	ldr	r1, [pc, #16]	; (80004a4 <LL_RCC_SetAHBPrescaler+0x24>)
 8000492:	687b      	ldr	r3, [r7, #4]
 8000494:	4313      	orrs	r3, r2
 8000496:	604b      	str	r3, [r1, #4]
}
 8000498:	bf00      	nop
 800049a:	370c      	adds	r7, #12
 800049c:	46bd      	mov	sp, r7
 800049e:	f85d 7b04 	ldr.w	r7, [sp], #4
 80004a2:	4770      	bx	lr
 80004a4:	40021000 	.word	0x40021000

080004a8 <LL_RCC_SetAPB1Prescaler>:
  *         @arg @ref LL_RCC_APB1_DIV_8
  *         @arg @ref LL_RCC_APB1_DIV_16
  * @retval None
  */
__STATIC_INLINE void LL_RCC_SetAPB1Prescaler(uint32_t Prescaler)
{
 80004a8:	b480      	push	{r7}
 80004aa:	b083      	sub	sp, #12
 80004ac:	af00      	add	r7, sp, #0
 80004ae:	6078      	str	r0, [r7, #4]
  MODIFY_REG(RCC->CFGR, RCC_CFGR_PPRE1, Prescaler);
 80004b0:	4b06      	ldr	r3, [pc, #24]	; (80004cc <LL_RCC_SetAPB1Prescaler+0x24>)
 80004b2:	685b      	ldr	r3, [r3, #4]
 80004b4:	f423 62e0 	bic.w	r2, r3, #1792	; 0x700
 80004b8:	4904      	ldr	r1, [pc, #16]	; (80004cc <LL_RCC_SetAPB1Prescaler+0x24>)
 80004ba:	687b      	ldr	r3, [r7, #4]
 80004bc:	4313      	orrs	r3, r2
 80004be:	604b      	str	r3, [r1, #4]
}
 80004c0:	bf00      	nop
 80004c2:	370c      	adds	r7, #12
 80004c4:	46bd      	mov	sp, r7
 80004c6:	f85d 7b04 	ldr.w	r7, [sp], #4
 80004ca:	4770      	bx	lr
 80004cc:	40021000 	.word	0x40021000

080004d0 <LL_RCC_SetAPB2Prescaler>:
  *         @arg @ref LL_RCC_APB2_DIV_8
  *         @arg @ref LL_RCC_APB2_DIV_16
  * @retval None
  */
__STATIC_INLINE void LL_RCC_SetAPB2Prescaler(uint32_t Prescaler)
{
 80004d0:	b480      	push	{r7}
 80004d2:	b083      	sub	sp, #12
 80004d4:	af00      	add	r7, sp, #0
 80004d6:	6078      	str	r0, [r7, #4]
  MODIFY_REG(RCC->CFGR, RCC_CFGR_PPRE2, Prescaler);
 80004d8:	4b06      	ldr	r3, [pc, #24]	; (80004f4 <LL_RCC_SetAPB2Prescaler+0x24>)
 80004da:	685b      	ldr	r3, [r3, #4]
 80004dc:	f423 5260 	bic.w	r2, r3, #14336	; 0x3800
 80004e0:	4904      	ldr	r1, [pc, #16]	; (80004f4 <LL_RCC_SetAPB2Prescaler+0x24>)
 80004e2:	687b      	ldr	r3, [r7, #4]
 80004e4:	4313      	orrs	r3, r2
 80004e6:	604b      	str	r3, [r1, #4]
}
 80004e8:	bf00      	nop
 80004ea:	370c      	adds	r7, #12
 80004ec:	46bd      	mov	sp, r7
 80004ee:	f85d 7b04 	ldr.w	r7, [sp], #4
 80004f2:	4770      	bx	lr
 80004f4:	40021000 	.word	0x40021000

080004f8 <LL_APB1_GRP1_EnableClock>:
  *
  *         (*) value not defined in all devices.
  * @retval None
*/
__STATIC_INLINE void LL_APB1_GRP1_EnableClock(uint32_t Periphs)
{
 80004f8:	b480      	push	{r7}
 80004fa:	b085      	sub	sp, #20
 80004fc:	af00      	add	r7, sp, #0
 80004fe:	6078      	str	r0, [r7, #4]
  __IO uint32_t tmpreg;
  SET_BIT(RCC->APB1ENR, Periphs);
 8000500:	4b08      	ldr	r3, [pc, #32]	; (8000524 <LL_APB1_GRP1_EnableClock+0x2c>)
 8000502:	69da      	ldr	r2, [r3, #28]
 8000504:	4907      	ldr	r1, [pc, #28]	; (8000524 <LL_APB1_GRP1_EnableClock+0x2c>)
 8000506:	687b      	ldr	r3, [r7, #4]
 8000508:	4313      	orrs	r3, r2
 800050a:	61cb      	str	r3, [r1, #28]
  /* Delay after an RCC peripheral clock enabling */
  tmpreg = READ_BIT(RCC->APB1ENR, Periphs);
 800050c:	4b05      	ldr	r3, [pc, #20]	; (8000524 <LL_APB1_GRP1_EnableClock+0x2c>)
 800050e:	69da      	ldr	r2, [r3, #28]
 8000510:	687b      	ldr	r3, [r7, #4]
 8000512:	4013      	ands	r3, r2
 8000514:	60fb      	str	r3, [r7, #12]
  (void)tmpreg;
 8000516:	68fb      	ldr	r3, [r7, #12]
}
 8000518:	bf00      	nop
 800051a:	3714      	adds	r7, #20
 800051c:	46bd      	mov	sp, r7
 800051e:	f85d 7b04 	ldr.w	r7, [sp], #4
 8000522:	4770      	bx	lr
 8000524:	40021000 	.word	0x40021000

08000528 <LL_APB2_GRP1_EnableClock>:
  *
  *         (*) value not defined in all devices.
  * @retval None
*/
__STATIC_INLINE void LL_APB2_GRP1_EnableClock(uint32_t Periphs)
{
 8000528:	b480      	push	{r7}
 800052a:	b085      	sub	sp, #20
 800052c:	af00      	add	r7, sp, #0
 800052e:	6078      	str	r0, [r7, #4]
  __IO uint32_t tmpreg;
  SET_BIT(RCC->APB2ENR, Periphs);
 8000530:	4b08      	ldr	r3, [pc, #32]	; (8000554 <LL_APB2_GRP1_EnableClock+0x2c>)
 8000532:	699a      	ldr	r2, [r3, #24]
 8000534:	4907      	ldr	r1, [pc, #28]	; (8000554 <LL_APB2_GRP1_EnableClock+0x2c>)
 8000536:	687b      	ldr	r3, [r7, #4]
 8000538:	4313      	orrs	r3, r2
 800053a:	618b      	str	r3, [r1, #24]
  /* Delay after an RCC peripheral clock enabling */
  tmpreg = READ_BIT(RCC->APB2ENR, Periphs);
 800053c:	4b05      	ldr	r3, [pc, #20]	; (8000554 <LL_APB2_GRP1_EnableClock+0x2c>)
 800053e:	699a      	ldr	r2, [r3, #24]
 8000540:	687b      	ldr	r3, [r7, #4]
 8000542:	4013      	ands	r3, r2
 8000544:	60fb      	str	r3, [r7, #12]
  (void)tmpreg;
 8000546:	68fb      	ldr	r3, [r7, #12]
}
 8000548:	bf00      	nop
 800054a:	3714      	adds	r7, #20
 800054c:	46bd      	mov	sp, r7
 800054e:	f85d 7b04 	ldr.w	r7, [sp], #4
 8000552:	4770      	bx	lr
 8000554:	40021000 	.word	0x40021000

08000558 <LL_FLASH_SetLatency>:
  *         @arg @ref LL_FLASH_LATENCY_1
  *         @arg @ref LL_FLASH_LATENCY_2
  * @retval None
  */
__STATIC_INLINE void LL_FLASH_SetLatency(uint32_t Latency)
{
 8000558:	b480      	push	{r7}
 800055a:	b083      	sub	sp, #12
 800055c:	af00      	add	r7, sp, #0
 800055e:	6078      	str	r0, [r7, #4]
  MODIFY_REG(FLASH->ACR, FLASH_ACR_LATENCY, Latency);
 8000560:	4b06      	ldr	r3, [pc, #24]	; (800057c <LL_FLASH_SetLatency+0x24>)
 8000562:	681b      	ldr	r3, [r3, #0]
 8000564:	f023 0207 	bic.w	r2, r3, #7
 8000568:	4904      	ldr	r1, [pc, #16]	; (800057c <LL_FLASH_SetLatency+0x24>)
 800056a:	687b      	ldr	r3, [r7, #4]
 800056c:	4313      	orrs	r3, r2
 800056e:	600b      	str	r3, [r1, #0]
}
 8000570:	bf00      	nop
 8000572:	370c      	adds	r7, #12
 8000574:	46bd      	mov	sp, r7
 8000576:	f85d 7b04 	ldr.w	r7, [sp], #4
 800057a:	4770      	bx	lr
 800057c:	40022000 	.word	0x40022000

08000580 <LL_FLASH_GetLatency>:
  *         @arg @ref LL_FLASH_LATENCY_0
  *         @arg @ref LL_FLASH_LATENCY_1
  *         @arg @ref LL_FLASH_LATENCY_2
  */
__STATIC_INLINE uint32_t LL_FLASH_GetLatency(void)
{
 8000580:	b480      	push	{r7}
 8000582:	af00      	add	r7, sp, #0
  return (uint32_t)(READ_BIT(FLASH->ACR, FLASH_ACR_LATENCY));
 8000584:	4b04      	ldr	r3, [pc, #16]	; (8000598 <LL_FLASH_GetLatency+0x18>)
 8000586:	681b      	ldr	r3, [r3, #0]
 8000588:	f003 0307 	and.w	r3, r3, #7
}
 800058c:	4618      	mov	r0, r3
 800058e:	46bd      	mov	sp, r7
 8000590:	f85d 7b04 	ldr.w	r7, [sp], #4
 8000594:	4770      	bx	lr
 8000596:	bf00      	nop
 8000598:	40022000 	.word	0x40022000

0800059c <LL_TIM_OC_SetCompareCH1>:
  * @param  TIMx Timer instance
  * @param  CompareValue between Min_Data=0 and Max_Data=65535
  * @retval None
  */
__STATIC_INLINE void LL_TIM_OC_SetCompareCH1(TIM_TypeDef *TIMx, uint32_t CompareValue)
{
 800059c:	b480      	push	{r7}
 800059e:	b083      	sub	sp, #12
 80005a0:	af00      	add	r7, sp, #0
 80005a2:	6078      	str	r0, [r7, #4]
 80005a4:	6039      	str	r1, [r7, #0]
  WRITE_REG(TIMx->CCR1, CompareValue);
 80005a6:	687b      	ldr	r3, [r7, #4]
 80005a8:	683a      	ldr	r2, [r7, #0]
 80005aa:	635a      	str	r2, [r3, #52]	; 0x34
}
 80005ac:	bf00      	nop
 80005ae:	370c      	adds	r7, #12
 80005b0:	46bd      	mov	sp, r7
 80005b2:	f85d 7b04 	ldr.w	r7, [sp], #4
 80005b6:	4770      	bx	lr

080005b8 <main>:

/**
 * @brief  The application entry point.
 * @retval int
 */
int main(void) {
 80005b8:	b580      	push	{r7, lr}
 80005ba:	b082      	sub	sp, #8
 80005bc:	af00      	add	r7, sp, #0
	/* USER CODE BEGIN 1 */
	PWM_Value = 0;
 80005be:	4b2b      	ldr	r3, [pc, #172]	; (800066c <main+0xb4>)
 80005c0:	2200      	movs	r2, #0
 80005c2:	701a      	strb	r2, [r3, #0]
	PWM_ValueReq = 0;
 80005c4:	4b2a      	ldr	r3, [pc, #168]	; (8000670 <main+0xb8>)
 80005c6:	2200      	movs	r2, #0
 80005c8:	701a      	strb	r2, [r3, #0]
	PWM_ValueDirection = Direction_DownUp;
 80005ca:	4b2a      	ldr	r3, [pc, #168]	; (8000674 <main+0xbc>)
 80005cc:	2200      	movs	r2, #0
 80005ce:	701a      	strb	r2, [r3, #0]
	mode = Mode_Auto;
 80005d0:	4b29      	ldr	r3, [pc, #164]	; (8000678 <main+0xc0>)
 80005d2:	2201      	movs	r2, #1
 80005d4:	701a      	strb	r2, [r3, #0]
	BufferCapacity.capacity = DMA_USART2_BUFFER_SIZE;
 80005d6:	4b29      	ldr	r3, [pc, #164]	; (800067c <main+0xc4>)
 80005d8:	2280      	movs	r2, #128	; 0x80
 80005da:	801a      	strh	r2, [r3, #0]
	BufferCapacity.reserved = 0;
 80005dc:	4b27      	ldr	r3, [pc, #156]	; (800067c <main+0xc4>)
 80005de:	2200      	movs	r2, #0
 80005e0:	805a      	strh	r2, [r3, #2]
	cmdData = CommandDataEnum_None;
 80005e2:	4b27      	ldr	r3, [pc, #156]	; (8000680 <main+0xc8>)
 80005e4:	2200      	movs	r2, #0
 80005e6:	701a      	strb	r2, [r3, #0]
	ReceivedDataStr.receivedData = 0;
 80005e8:	4b26      	ldr	r3, [pc, #152]	; (8000684 <main+0xcc>)
 80005ea:	2200      	movs	r2, #0
 80005ec:	701a      	strb	r2, [r3, #0]

	/* MCU Configuration--------------------------------------------------------*/

	/* Reset of all peripherals, Initializes the Flash interface and the Systick. */

	LL_APB2_GRP1_EnableClock(LL_APB2_GRP1_PERIPH_SYSCFG);
 80005ee:	2001      	movs	r0, #1
 80005f0:	f7ff ff9a 	bl	8000528 <LL_APB2_GRP1_EnableClock>
	LL_APB1_GRP1_EnableClock(LL_APB1_GRP1_PERIPH_PWR);
 80005f4:	f04f 5080 	mov.w	r0, #268435456	; 0x10000000
 80005f8:	f7ff ff7e 	bl	80004f8 <LL_APB1_GRP1_EnableClock>

	NVIC_SetPriorityGrouping(NVIC_PRIORITYGROUP_4);
 80005fc:	2003      	movs	r0, #3
 80005fe:	f7ff fec1 	bl	8000384 <__NVIC_SetPriorityGrouping>
	/* USER CODE BEGIN Init */

	/* USER CODE END Init */

	/* Configure the system clock */
	SystemClock_Config();
 8000602:	f000 f845 	bl	8000690 <SystemClock_Config>
	/* USER CODE BEGIN SysInit */

	/* USER CODE END SysInit */

	/* Initialize all configured peripherals */
	MX_GPIO_Init();
 8000606:	f7ff feb1 	bl	800036c <MX_GPIO_Init>
	MX_DMA_Init();
 800060a:	f7ff fe7f 	bl	800030c <MX_DMA_Init>
	MX_USART2_UART_Init();
 800060e:	f001 f943 	bl	8001898 <MX_USART2_UART_Init>
	MX_TIM2_Init();
 8000612:	f000 fd0d 	bl	8001030 <MX_TIM2_Init>
	/* USER CODE BEGIN 2 */
	TIM2_RegisterCallback(setDutyCycle);
 8000616:	481c      	ldr	r0, [pc, #112]	; (8000688 <main+0xd0>)
 8000618:	f000 fcf8 	bl	800100c <TIM2_RegisterCallback>
	USART2_RegisterCallback(proccesDmaData);
 800061c:	481b      	ldr	r0, [pc, #108]	; (800068c <main+0xd4>)
 800061e:	f001 f9f3 	bl	8001a08 <USART2_RegisterCallback>
		 PWM_ValueReq = 50;
		 LL_mDelay(10000);
		 PWM_ValueReq = 80;
		 LL_mDelay(10000);
		 mode = Mode_Auto;*/
		if (ReceivedDataStr.receivedData == 1) {
 8000622:	4b18      	ldr	r3, [pc, #96]	; (8000684 <main+0xcc>)
 8000624:	781b      	ldrb	r3, [r3, #0]
 8000626:	2b01      	cmp	r3, #1
 8000628:	d1fb      	bne.n	8000622 <main+0x6a>
			CommandDataEnum respond = ParseReceivedString(&ReceivedDataStr);
 800062a:	4816      	ldr	r0, [pc, #88]	; (8000684 <main+0xcc>)
 800062c:	f000 f960 	bl	80008f0 <ParseReceivedString>
 8000630:	4603      	mov	r3, r0
 8000632:	71fb      	strb	r3, [r7, #7]
			switch (respond) {
 8000634:	79fb      	ldrb	r3, [r7, #7]
 8000636:	2b03      	cmp	r3, #3
 8000638:	d00d      	beq.n	8000656 <main+0x9e>
 800063a:	2b03      	cmp	r3, #3
 800063c:	dc11      	bgt.n	8000662 <main+0xaa>
 800063e:	2b01      	cmp	r3, #1
 8000640:	d005      	beq.n	800064e <main+0x96>
 8000642:	2b02      	cmp	r3, #2
 8000644:	d10d      	bne.n	8000662 <main+0xaa>
			default:
				break;
			case CommandDataEnum_ModeAuto:
				mode = Mode_Auto;
 8000646:	4b0c      	ldr	r3, [pc, #48]	; (8000678 <main+0xc0>)
 8000648:	2201      	movs	r2, #1
 800064a:	701a      	strb	r2, [r3, #0]
				break;
 800064c:	e00a      	b.n	8000664 <main+0xac>
			case CommandDataEnum_ModeMan:
				mode = Mode_Man;
 800064e:	4b0a      	ldr	r3, [pc, #40]	; (8000678 <main+0xc0>)
 8000650:	2200      	movs	r2, #0
 8000652:	701a      	strb	r2, [r3, #0]
				break;
 8000654:	e006      	b.n	8000664 <main+0xac>
			case CommandDataEnum_CmdPwm:
				PWM_ValueReq = ReceivedDataStr.value;
 8000656:	4b0b      	ldr	r3, [pc, #44]	; (8000684 <main+0xcc>)
 8000658:	f893 204a 	ldrb.w	r2, [r3, #74]	; 0x4a
 800065c:	4b04      	ldr	r3, [pc, #16]	; (8000670 <main+0xb8>)
 800065e:	701a      	strb	r2, [r3, #0]
				break;
 8000660:	e000      	b.n	8000664 <main+0xac>
				break;
 8000662:	bf00      	nop
			}
			ReceivedDataStr.receivedData = 0;
 8000664:	4b07      	ldr	r3, [pc, #28]	; (8000684 <main+0xcc>)
 8000666:	2200      	movs	r2, #0
 8000668:	701a      	strb	r2, [r3, #0]
		if (ReceivedDataStr.receivedData == 1) {
 800066a:	e7da      	b.n	8000622 <main+0x6a>
 800066c:	20000098 	.word	0x20000098
 8000670:	20000095 	.word	0x20000095
 8000674:	20000094 	.word	0x20000094
 8000678:	20000096 	.word	0x20000096
 800067c:	2000009c 	.word	0x2000009c
 8000680:	20000097 	.word	0x20000097
 8000684:	200000a0 	.word	0x200000a0
 8000688:	080006f5 	.word	0x080006f5
 800068c:	0800075d 	.word	0x0800075d

08000690 <SystemClock_Config>:

/**
 * @brief System Clock Configuration
 * @retval None
 */
void SystemClock_Config(void) {
 8000690:	b580      	push	{r7, lr}
 8000692:	af00      	add	r7, sp, #0
	LL_FLASH_SetLatency(LL_FLASH_LATENCY_0);
 8000694:	2000      	movs	r0, #0
 8000696:	f7ff ff5f 	bl	8000558 <LL_FLASH_SetLatency>
	while (LL_FLASH_GetLatency() != LL_FLASH_LATENCY_0) {
 800069a:	bf00      	nop
 800069c:	f7ff ff70 	bl	8000580 <LL_FLASH_GetLatency>
 80006a0:	4603      	mov	r3, r0
 80006a2:	2b00      	cmp	r3, #0
 80006a4:	d1fa      	bne.n	800069c <SystemClock_Config+0xc>
	}
	LL_RCC_HSI_Enable();
 80006a6:	f7ff fe91 	bl	80003cc <LL_RCC_HSI_Enable>

	/* Wait till HSI is ready */
	while (LL_RCC_HSI_IsReady() != 1) {
 80006aa:	bf00      	nop
 80006ac:	f7ff fe9e 	bl	80003ec <LL_RCC_HSI_IsReady>
 80006b0:	4603      	mov	r3, r0
 80006b2:	2b01      	cmp	r3, #1
 80006b4:	d1fa      	bne.n	80006ac <SystemClock_Config+0x1c>

	}
	LL_RCC_HSI_SetCalibTrimming(16);
 80006b6:	2010      	movs	r0, #16
 80006b8:	f7ff feaa 	bl	8000410 <LL_RCC_HSI_SetCalibTrimming>
	LL_RCC_SetAHBPrescaler(LL_RCC_SYSCLK_DIV_1);
 80006bc:	2000      	movs	r0, #0
 80006be:	f7ff fedf 	bl	8000480 <LL_RCC_SetAHBPrescaler>
	LL_RCC_SetAPB1Prescaler(LL_RCC_APB1_DIV_1);
 80006c2:	2000      	movs	r0, #0
 80006c4:	f7ff fef0 	bl	80004a8 <LL_RCC_SetAPB1Prescaler>
	LL_RCC_SetAPB2Prescaler(LL_RCC_APB2_DIV_1);
 80006c8:	2000      	movs	r0, #0
 80006ca:	f7ff ff01 	bl	80004d0 <LL_RCC_SetAPB2Prescaler>
	LL_RCC_SetSysClkSource(LL_RCC_SYS_CLKSOURCE_HSI);
 80006ce:	2000      	movs	r0, #0
 80006d0:	f7ff feb4 	bl	800043c <LL_RCC_SetSysClkSource>

	/* Wait till System clock is ready */
	while (LL_RCC_GetSysClkSource() != LL_RCC_SYS_CLKSOURCE_STATUS_HSI) {
 80006d4:	bf00      	nop
 80006d6:	f7ff fec5 	bl	8000464 <LL_RCC_GetSysClkSource>
 80006da:	4603      	mov	r3, r0
 80006dc:	2b00      	cmp	r3, #0
 80006de:	d1fa      	bne.n	80006d6 <SystemClock_Config+0x46>

	}
	LL_Init1msTick(8000000);
 80006e0:	4803      	ldr	r0, [pc, #12]	; (80006f0 <SystemClock_Config+0x60>)
 80006e2:	f002 fa41 	bl	8002b68 <LL_Init1msTick>
	LL_SetSystemCoreClock(8000000);
 80006e6:	4802      	ldr	r0, [pc, #8]	; (80006f0 <SystemClock_Config+0x60>)
 80006e8:	f002 fa4c 	bl	8002b84 <LL_SetSystemCoreClock>
}
 80006ec:	bf00      	nop
 80006ee:	bd80      	pop	{r7, pc}
 80006f0:	007a1200 	.word	0x007a1200

080006f4 <setDutyCycle>:

/* USER CODE BEGIN 4 */
void setDutyCycle(uint8_t D) {
 80006f4:	b580      	push	{r7, lr}
 80006f6:	b082      	sub	sp, #8
 80006f8:	af00      	add	r7, sp, #0
 80006fa:	4603      	mov	r3, r0
 80006fc:	71fb      	strb	r3, [r7, #7]
	if (mode == Mode_Auto) {
 80006fe:	4b14      	ldr	r3, [pc, #80]	; (8000750 <setDutyCycle+0x5c>)
 8000700:	781b      	ldrb	r3, [r3, #0]
 8000702:	2b01      	cmp	r3, #1
 8000704:	d109      	bne.n	800071a <setDutyCycle+0x26>
		D = CountDutyCycleForModeAuto(D);
 8000706:	79fb      	ldrb	r3, [r7, #7]
 8000708:	4618      	mov	r0, r3
 800070a:	f000 f899 	bl	8000840 <CountDutyCycleForModeAuto>
 800070e:	4603      	mov	r3, r0
 8000710:	71fb      	strb	r3, [r7, #7]
		PWM_ValueReq = D;
 8000712:	4a10      	ldr	r2, [pc, #64]	; (8000754 <setDutyCycle+0x60>)
 8000714:	79fb      	ldrb	r3, [r7, #7]
 8000716:	7013      	strb	r3, [r2, #0]
 8000718:	e00c      	b.n	8000734 <setDutyCycle+0x40>
	} else if (mode == Mode_Man)
 800071a:	4b0d      	ldr	r3, [pc, #52]	; (8000750 <setDutyCycle+0x5c>)
 800071c:	781b      	ldrb	r3, [r3, #0]
 800071e:	2b00      	cmp	r3, #0
 8000720:	d108      	bne.n	8000734 <setDutyCycle+0x40>
		D = CountDutyCycleForModeMan(D, PWM_ValueReq);
 8000722:	4b0c      	ldr	r3, [pc, #48]	; (8000754 <setDutyCycle+0x60>)
 8000724:	781a      	ldrb	r2, [r3, #0]
 8000726:	79fb      	ldrb	r3, [r7, #7]
 8000728:	4611      	mov	r1, r2
 800072a:	4618      	mov	r0, r3
 800072c:	f000 f8c8 	bl	80008c0 <CountDutyCycleForModeMan>
 8000730:	4603      	mov	r3, r0
 8000732:	71fb      	strb	r3, [r7, #7]
	LL_TIM_OC_SetCompareCH1(TIM2, D);
 8000734:	79fb      	ldrb	r3, [r7, #7]
 8000736:	4619      	mov	r1, r3
 8000738:	f04f 4080 	mov.w	r0, #1073741824	; 0x40000000
 800073c:	f7ff ff2e 	bl	800059c <LL_TIM_OC_SetCompareCH1>
	PWM_Value = D;
 8000740:	4a05      	ldr	r2, [pc, #20]	; (8000758 <setDutyCycle+0x64>)
 8000742:	79fb      	ldrb	r3, [r7, #7]
 8000744:	7013      	strb	r3, [r2, #0]
}
 8000746:	bf00      	nop
 8000748:	3708      	adds	r7, #8
 800074a:	46bd      	mov	sp, r7
 800074c:	bd80      	pop	{r7, pc}
 800074e:	bf00      	nop
 8000750:	20000096 	.word	0x20000096
 8000754:	20000095 	.word	0x20000095
 8000758:	20000098 	.word	0x20000098

0800075c <proccesDmaData>:

void proccesDmaData(uint8_t sign, uint8_t index, uint16_t length) {
 800075c:	b480      	push	{r7}
 800075e:	b083      	sub	sp, #12
 8000760:	af00      	add	r7, sp, #0
 8000762:	4603      	mov	r3, r0
 8000764:	71fb      	strb	r3, [r7, #7]
 8000766:	460b      	mov	r3, r1
 8000768:	71bb      	strb	r3, [r7, #6]
 800076a:	4613      	mov	r3, r2
 800076c:	80bb      	strh	r3, [r7, #4]
	static uint8_t receivedLetters = 0;
	if (sign == SIGN_FILE_START && SignStartDet != 1) {
 800076e:	79fb      	ldrb	r3, [r7, #7]
 8000770:	2b24      	cmp	r3, #36	; 0x24
 8000772:	d10d      	bne.n	8000790 <proccesDmaData+0x34>
 8000774:	4b2e      	ldr	r3, [pc, #184]	; (8000830 <proccesDmaData+0xd4>)
 8000776:	781b      	ldrb	r3, [r3, #0]
 8000778:	2b01      	cmp	r3, #1
 800077a:	d009      	beq.n	8000790 <proccesDmaData+0x34>
		SignStartDet = 1;
 800077c:	4b2c      	ldr	r3, [pc, #176]	; (8000830 <proccesDmaData+0xd4>)
 800077e:	2201      	movs	r2, #1
 8000780:	701a      	strb	r2, [r3, #0]
		SignEndDet = 0;
 8000782:	4b2c      	ldr	r3, [pc, #176]	; (8000834 <proccesDmaData+0xd8>)
 8000784:	2200      	movs	r2, #0
 8000786:	701a      	strb	r2, [r3, #0]
		receivedLetters = 0;
 8000788:	4b2b      	ldr	r3, [pc, #172]	; (8000838 <proccesDmaData+0xdc>)
 800078a:	2200      	movs	r2, #0
 800078c:	701a      	strb	r2, [r3, #0]
 800078e:	e01b      	b.n	80007c8 <proccesDmaData+0x6c>
	} else if (SignStartDet == 1 && receivedLetters < SIGN_RECEIVED_MAX_COUNT) {
 8000790:	4b27      	ldr	r3, [pc, #156]	; (8000830 <proccesDmaData+0xd4>)
 8000792:	781b      	ldrb	r3, [r3, #0]
 8000794:	2b01      	cmp	r3, #1
 8000796:	d117      	bne.n	80007c8 <proccesDmaData+0x6c>
 8000798:	4b27      	ldr	r3, [pc, #156]	; (8000838 <proccesDmaData+0xdc>)
 800079a:	781b      	ldrb	r3, [r3, #0]
 800079c:	2b23      	cmp	r3, #35	; 0x23
 800079e:	d813      	bhi.n	80007c8 <proccesDmaData+0x6c>
		if (sign == SIGN_FILE_END) {
 80007a0:	79fb      	ldrb	r3, [r7, #7]
 80007a2:	2b24      	cmp	r3, #36	; 0x24
 80007a4:	d103      	bne.n	80007ae <proccesDmaData+0x52>
			SignEndDet = 1;
 80007a6:	4b23      	ldr	r3, [pc, #140]	; (8000834 <proccesDmaData+0xd8>)
 80007a8:	2201      	movs	r2, #1
 80007aa:	701a      	strb	r2, [r3, #0]
 80007ac:	e006      	b.n	80007bc <proccesDmaData+0x60>
		} else {
			ReceivedDataStr.receivedStr[receivedLetters] = sign;
 80007ae:	4b22      	ldr	r3, [pc, #136]	; (8000838 <proccesDmaData+0xdc>)
 80007b0:	781b      	ldrb	r3, [r3, #0]
 80007b2:	461a      	mov	r2, r3
 80007b4:	4b21      	ldr	r3, [pc, #132]	; (800083c <proccesDmaData+0xe0>)
 80007b6:	4413      	add	r3, r2
 80007b8:	79fa      	ldrb	r2, [r7, #7]
 80007ba:	705a      	strb	r2, [r3, #1]
		}
		receivedLetters++;
 80007bc:	4b1e      	ldr	r3, [pc, #120]	; (8000838 <proccesDmaData+0xdc>)
 80007be:	781b      	ldrb	r3, [r3, #0]
 80007c0:	3301      	adds	r3, #1
 80007c2:	b2da      	uxtb	r2, r3
 80007c4:	4b1c      	ldr	r3, [pc, #112]	; (8000838 <proccesDmaData+0xdc>)
 80007c6:	701a      	strb	r2, [r3, #0]
	}
	if (SignStartDet
			== 1&& SignEndDet == 1 && receivedLetters <= SIGN_RECEIVED_MAX_COUNT) {
 80007c8:	4b19      	ldr	r3, [pc, #100]	; (8000830 <proccesDmaData+0xd4>)
 80007ca:	781b      	ldrb	r3, [r3, #0]
	if (SignStartDet
 80007cc:	2b01      	cmp	r3, #1
 80007ce:	d112      	bne.n	80007f6 <proccesDmaData+0x9a>
			== 1&& SignEndDet == 1 && receivedLetters <= SIGN_RECEIVED_MAX_COUNT) {
 80007d0:	4b18      	ldr	r3, [pc, #96]	; (8000834 <proccesDmaData+0xd8>)
 80007d2:	781b      	ldrb	r3, [r3, #0]
 80007d4:	2b01      	cmp	r3, #1
 80007d6:	d10e      	bne.n	80007f6 <proccesDmaData+0x9a>
 80007d8:	4b17      	ldr	r3, [pc, #92]	; (8000838 <proccesDmaData+0xdc>)
 80007da:	781b      	ldrb	r3, [r3, #0]
 80007dc:	2b24      	cmp	r3, #36	; 0x24
 80007de:	d80a      	bhi.n	80007f6 <proccesDmaData+0x9a>
		ReceivedDataStr.receivedData = 1;
 80007e0:	4b16      	ldr	r3, [pc, #88]	; (800083c <proccesDmaData+0xe0>)
 80007e2:	2201      	movs	r2, #1
 80007e4:	701a      	strb	r2, [r3, #0]
		ReceivedDataStr.receivedStr[SIGN_RECEIVED_MAX_COUNT] = 0;
 80007e6:	4b15      	ldr	r3, [pc, #84]	; (800083c <proccesDmaData+0xe0>)
 80007e8:	2200      	movs	r2, #0
 80007ea:	f883 2025 	strb.w	r2, [r3, #37]	; 0x25
		SignStartDet = 0;
 80007ee:	4b10      	ldr	r3, [pc, #64]	; (8000830 <proccesDmaData+0xd4>)
 80007f0:	2200      	movs	r2, #0
 80007f2:	701a      	strb	r2, [r3, #0]
 80007f4:	e00a      	b.n	800080c <proccesDmaData+0xb0>
	} else if (SignStartDet == 1 && receivedLetters > SIGN_RECEIVED_MAX_COUNT)
 80007f6:	4b0e      	ldr	r3, [pc, #56]	; (8000830 <proccesDmaData+0xd4>)
 80007f8:	781b      	ldrb	r3, [r3, #0]
 80007fa:	2b01      	cmp	r3, #1
 80007fc:	d106      	bne.n	800080c <proccesDmaData+0xb0>
 80007fe:	4b0e      	ldr	r3, [pc, #56]	; (8000838 <proccesDmaData+0xdc>)
 8000800:	781b      	ldrb	r3, [r3, #0]
 8000802:	2b24      	cmp	r3, #36	; 0x24
 8000804:	d902      	bls.n	800080c <proccesDmaData+0xb0>
		SignStartDet = 0;
 8000806:	4b0a      	ldr	r3, [pc, #40]	; (8000830 <proccesDmaData+0xd4>)
 8000808:	2200      	movs	r2, #0
 800080a:	701a      	strb	r2, [r3, #0]
	if(SignStartDet == 1 && index >= length-1)
 800080c:	4b08      	ldr	r3, [pc, #32]	; (8000830 <proccesDmaData+0xd4>)
 800080e:	781b      	ldrb	r3, [r3, #0]
 8000810:	2b01      	cmp	r3, #1
 8000812:	d107      	bne.n	8000824 <proccesDmaData+0xc8>
 8000814:	79ba      	ldrb	r2, [r7, #6]
 8000816:	88bb      	ldrh	r3, [r7, #4]
 8000818:	3b01      	subs	r3, #1
 800081a:	429a      	cmp	r2, r3
 800081c:	db02      	blt.n	8000824 <proccesDmaData+0xc8>
		SignStartDet = 0;
 800081e:	4b04      	ldr	r3, [pc, #16]	; (8000830 <proccesDmaData+0xd4>)
 8000820:	2200      	movs	r2, #0
 8000822:	701a      	strb	r2, [r3, #0]

}
 8000824:	bf00      	nop
 8000826:	370c      	adds	r7, #12
 8000828:	46bd      	mov	sp, r7
 800082a:	f85d 7b04 	ldr.w	r7, [sp], #4
 800082e:	4770      	bx	lr
 8000830:	20000084 	.word	0x20000084
 8000834:	20000085 	.word	0x20000085
 8000838:	20000086 	.word	0x20000086
 800083c:	200000a0 	.word	0x200000a0

08000840 <CountDutyCycleForModeAuto>:

uint8_t CountDutyCycleForModeAuto(uint8_t D) {
 8000840:	b480      	push	{r7}
 8000842:	b083      	sub	sp, #12
 8000844:	af00      	add	r7, sp, #0
 8000846:	4603      	mov	r3, r0
 8000848:	71fb      	strb	r3, [r7, #7]
	if (D < PWM_VALUE_MAX && PWM_ValueDirection == Direction_DownUp)
 800084a:	79fb      	ldrb	r3, [r7, #7]
 800084c:	2b62      	cmp	r3, #98	; 0x62
 800084e:	d807      	bhi.n	8000860 <CountDutyCycleForModeAuto+0x20>
 8000850:	4b1a      	ldr	r3, [pc, #104]	; (80008bc <CountDutyCycleForModeAuto+0x7c>)
 8000852:	781b      	ldrb	r3, [r3, #0]
 8000854:	2b00      	cmp	r3, #0
 8000856:	d103      	bne.n	8000860 <CountDutyCycleForModeAuto+0x20>
		D += 1;
 8000858:	79fb      	ldrb	r3, [r7, #7]
 800085a:	3301      	adds	r3, #1
 800085c:	71fb      	strb	r3, [r7, #7]
 800085e:	e025      	b.n	80008ac <CountDutyCycleForModeAuto+0x6c>
	else if (D >= PWM_VALUE_MAX && PWM_ValueDirection == Direction_DownUp) {
 8000860:	79fb      	ldrb	r3, [r7, #7]
 8000862:	2b62      	cmp	r3, #98	; 0x62
 8000864:	d90a      	bls.n	800087c <CountDutyCycleForModeAuto+0x3c>
 8000866:	4b15      	ldr	r3, [pc, #84]	; (80008bc <CountDutyCycleForModeAuto+0x7c>)
 8000868:	781b      	ldrb	r3, [r3, #0]
 800086a:	2b00      	cmp	r3, #0
 800086c:	d106      	bne.n	800087c <CountDutyCycleForModeAuto+0x3c>
		PWM_ValueDirection = Direction_UpDown;
 800086e:	4b13      	ldr	r3, [pc, #76]	; (80008bc <CountDutyCycleForModeAuto+0x7c>)
 8000870:	2201      	movs	r2, #1
 8000872:	701a      	strb	r2, [r3, #0]
		D -= 1;
 8000874:	79fb      	ldrb	r3, [r7, #7]
 8000876:	3b01      	subs	r3, #1
 8000878:	71fb      	strb	r3, [r7, #7]
 800087a:	e017      	b.n	80008ac <CountDutyCycleForModeAuto+0x6c>
	} else if (D > PWM_VALUE_MIN && PWM_ValueDirection == Direction_UpDown)
 800087c:	79fb      	ldrb	r3, [r7, #7]
 800087e:	2b00      	cmp	r3, #0
 8000880:	d007      	beq.n	8000892 <CountDutyCycleForModeAuto+0x52>
 8000882:	4b0e      	ldr	r3, [pc, #56]	; (80008bc <CountDutyCycleForModeAuto+0x7c>)
 8000884:	781b      	ldrb	r3, [r3, #0]
 8000886:	2b01      	cmp	r3, #1
 8000888:	d103      	bne.n	8000892 <CountDutyCycleForModeAuto+0x52>
		D -= 1;
 800088a:	79fb      	ldrb	r3, [r7, #7]
 800088c:	3b01      	subs	r3, #1
 800088e:	71fb      	strb	r3, [r7, #7]
 8000890:	e00c      	b.n	80008ac <CountDutyCycleForModeAuto+0x6c>
	else if (D <= PWM_VALUE_MIN && PWM_ValueDirection == Direction_UpDown) {
 8000892:	79fb      	ldrb	r3, [r7, #7]
 8000894:	2b00      	cmp	r3, #0
 8000896:	d109      	bne.n	80008ac <CountDutyCycleForModeAuto+0x6c>
 8000898:	4b08      	ldr	r3, [pc, #32]	; (80008bc <CountDutyCycleForModeAuto+0x7c>)
 800089a:	781b      	ldrb	r3, [r3, #0]
 800089c:	2b01      	cmp	r3, #1
 800089e:	d105      	bne.n	80008ac <CountDutyCycleForModeAuto+0x6c>
		PWM_ValueDirection = Direction_DownUp;
 80008a0:	4b06      	ldr	r3, [pc, #24]	; (80008bc <CountDutyCycleForModeAuto+0x7c>)
 80008a2:	2200      	movs	r2, #0
 80008a4:	701a      	strb	r2, [r3, #0]
		D += 1;
 80008a6:	79fb      	ldrb	r3, [r7, #7]
 80008a8:	3301      	adds	r3, #1
 80008aa:	71fb      	strb	r3, [r7, #7]
	}
	return D;
 80008ac:	79fb      	ldrb	r3, [r7, #7]
}
 80008ae:	4618      	mov	r0, r3
 80008b0:	370c      	adds	r7, #12
 80008b2:	46bd      	mov	sp, r7
 80008b4:	f85d 7b04 	ldr.w	r7, [sp], #4
 80008b8:	4770      	bx	lr
 80008ba:	bf00      	nop
 80008bc:	20000094 	.word	0x20000094

080008c0 <CountDutyCycleForModeMan>:
uint8_t CountDutyCycleForModeMan(uint8_t D, uint8_t reqD) {
 80008c0:	b580      	push	{r7, lr}
 80008c2:	b082      	sub	sp, #8
 80008c4:	af00      	add	r7, sp, #0
 80008c6:	4603      	mov	r3, r0
 80008c8:	460a      	mov	r2, r1
 80008ca:	71fb      	strb	r3, [r7, #7]
 80008cc:	4613      	mov	r3, r2
 80008ce:	71bb      	strb	r3, [r7, #6]
	if (D != reqD) {
 80008d0:	79fa      	ldrb	r2, [r7, #7]
 80008d2:	79bb      	ldrb	r3, [r7, #6]
 80008d4:	429a      	cmp	r2, r3
 80008d6:	d005      	beq.n	80008e4 <CountDutyCycleForModeMan+0x24>
		D = CountDutyCycleForModeAuto(D);
 80008d8:	79fb      	ldrb	r3, [r7, #7]
 80008da:	4618      	mov	r0, r3
 80008dc:	f7ff ffb0 	bl	8000840 <CountDutyCycleForModeAuto>
 80008e0:	4603      	mov	r3, r0
 80008e2:	71fb      	strb	r3, [r7, #7]
	}
	return D;
 80008e4:	79fb      	ldrb	r3, [r7, #7]
}
 80008e6:	4618      	mov	r0, r3
 80008e8:	3708      	adds	r7, #8
 80008ea:	46bd      	mov	sp, r7
 80008ec:	bd80      	pop	{r7, pc}
	...

080008f0 <ParseReceivedString>:

CommandDataEnum ParseReceivedString(ReceivedDataStruct *ReceivedData) {
 80008f0:	b580      	push	{r7, lr}
 80008f2:	b084      	sub	sp, #16
 80008f4:	af00      	add	r7, sp, #0
 80008f6:	6078      	str	r0, [r7, #4]
	CommandDataEnum result = CommandDataEnum_None;
 80008f8:	2300      	movs	r3, #0
 80008fa:	73fb      	strb	r3, [r7, #15]
	if (strstr((const char*) ReceivedData->receivedStr,
 80008fc:	687b      	ldr	r3, [r7, #4]
 80008fe:	3301      	adds	r3, #1
 8000900:	4928      	ldr	r1, [pc, #160]	; (80009a4 <ParseReceivedString+0xb4>)
 8000902:	4618      	mov	r0, r3
 8000904:	f002 f98c 	bl	8002c20 <strstr>
 8000908:	4603      	mov	r3, r0
 800090a:	2b00      	cmp	r3, #0
 800090c:	d00b      	beq.n	8000926 <ParseReceivedString+0x36>
			(const char*) CMD_AUTO) != NULL) {
		strcpy((char*) ReceivedData->receivedCommand,
 800090e:	687b      	ldr	r3, [r7, #4]
 8000910:	f103 0226 	add.w	r2, r3, #38	; 0x26
				(const char*) ReceivedData->receivedStr);
 8000914:	687b      	ldr	r3, [r7, #4]
 8000916:	3301      	adds	r3, #1
		strcpy((char*) ReceivedData->receivedCommand,
 8000918:	4619      	mov	r1, r3
 800091a:	4610      	mov	r0, r2
 800091c:	f002 f978 	bl	8002c10 <strcpy>
		result = CommandDataEnum_ModeAuto;
 8000920:	2302      	movs	r3, #2
 8000922:	73fb      	strb	r3, [r7, #15]
 8000924:	e038      	b.n	8000998 <ParseReceivedString+0xa8>
	} else if (strstr((const char*) ReceivedData->receivedStr,
 8000926:	687b      	ldr	r3, [r7, #4]
 8000928:	3301      	adds	r3, #1
 800092a:	491f      	ldr	r1, [pc, #124]	; (80009a8 <ParseReceivedString+0xb8>)
 800092c:	4618      	mov	r0, r3
 800092e:	f002 f977 	bl	8002c20 <strstr>
 8000932:	4603      	mov	r3, r0
 8000934:	2b00      	cmp	r3, #0
 8000936:	d00b      	beq.n	8000950 <ParseReceivedString+0x60>
			(const char*) CMD_MAN) != NULL) {
		strcpy((char*) ReceivedData->receivedCommand,
 8000938:	687b      	ldr	r3, [r7, #4]
 800093a:	f103 0226 	add.w	r2, r3, #38	; 0x26
				(const char*) ReceivedData->receivedStr);
 800093e:	687b      	ldr	r3, [r7, #4]
 8000940:	3301      	adds	r3, #1
		strcpy((char*) ReceivedData->receivedCommand,
 8000942:	4619      	mov	r1, r3
 8000944:	4610      	mov	r0, r2
 8000946:	f002 f963 	bl	8002c10 <strcpy>
		result = CommandDataEnum_ModeMan;
 800094a:	2301      	movs	r3, #1
 800094c:	73fb      	strb	r3, [r7, #15]
 800094e:	e023      	b.n	8000998 <ParseReceivedString+0xa8>
	} else if (strstr((const char*) ReceivedData->receivedStr,
 8000950:	687b      	ldr	r3, [r7, #4]
 8000952:	3301      	adds	r3, #1
 8000954:	4915      	ldr	r1, [pc, #84]	; (80009ac <ParseReceivedString+0xbc>)
 8000956:	4618      	mov	r0, r3
 8000958:	f002 f962 	bl	8002c20 <strstr>
 800095c:	4603      	mov	r3, r0
 800095e:	2b00      	cmp	r3, #0
 8000960:	d01a      	beq.n	8000998 <ParseReceivedString+0xa8>
			(const char*) CMD_PWM) != NULL) {
		strcpy((char*) ReceivedData->receivedCommand,
 8000962:	687b      	ldr	r3, [r7, #4]
 8000964:	f103 0226 	add.w	r2, r3, #38	; 0x26
				(const char*) ReceivedData->receivedStr);
 8000968:	687b      	ldr	r3, [r7, #4]
 800096a:	3301      	adds	r3, #1
		strcpy((char*) ReceivedData->receivedCommand,
 800096c:	4619      	mov	r1, r3
 800096e:	4610      	mov	r0, r2
 8000970:	f002 f94e 	bl	8002c10 <strcpy>
		int8_t respond = ParseReceivedCommandValue(
				ReceivedData->receivedCommand,
 8000974:	687b      	ldr	r3, [r7, #4]
 8000976:	3326      	adds	r3, #38	; 0x26
		int8_t respond = ParseReceivedCommandValue(
 8000978:	2105      	movs	r1, #5
 800097a:	4618      	mov	r0, r3
 800097c:	f000 f818 	bl	80009b0 <ParseReceivedCommandValue>
 8000980:	4603      	mov	r3, r0
 8000982:	73bb      	strb	r3, [r7, #14]
				(uint8_t) 5);
		if (respond > -1) {
 8000984:	f997 300e 	ldrsb.w	r3, [r7, #14]
 8000988:	2b00      	cmp	r3, #0
 800098a:	db05      	blt.n	8000998 <ParseReceivedString+0xa8>
			ReceivedData->value = respond;
 800098c:	7bba      	ldrb	r2, [r7, #14]
 800098e:	687b      	ldr	r3, [r7, #4]
 8000990:	f883 204a 	strb.w	r2, [r3, #74]	; 0x4a
			result = CommandDataEnum_CmdPwm;
 8000994:	2303      	movs	r3, #3
 8000996:	73fb      	strb	r3, [r7, #15]
		}
	}
	return result;
 8000998:	7bfb      	ldrb	r3, [r7, #15]
}
 800099a:	4618      	mov	r0, r3
 800099c:	3710      	adds	r7, #16
 800099e:	46bd      	mov	sp, r7
 80009a0:	bd80      	pop	{r7, pc}
 80009a2:	bf00      	nop
 80009a4:	08002d84 	.word	0x08002d84
 80009a8:	08002d8c 	.word	0x08002d8c
 80009ac:	08002d94 	.word	0x08002d94

080009b0 <ParseReceivedCommandValue>:
int8_t ParseReceivedCommandValue(uint8_t *cmdData, uint8_t lenght) {
 80009b0:	b580      	push	{r7, lr}
 80009b2:	b08c      	sub	sp, #48	; 0x30
 80009b4:	af00      	add	r7, sp, #0
 80009b6:	6078      	str	r0, [r7, #4]
 80009b8:	460b      	mov	r3, r1
 80009ba:	70fb      	strb	r3, [r7, #3]
	uint8_t result = -1;
 80009bc:	23ff      	movs	r3, #255	; 0xff
 80009be:	f887 302f 	strb.w	r3, [r7, #47]	; 0x2f
	uint8_t array[SIGN_RECEIVED_MAX_COUNT] = { 0 };
 80009c2:	2300      	movs	r3, #0
 80009c4:	60bb      	str	r3, [r7, #8]
 80009c6:	f107 030c 	add.w	r3, r7, #12
 80009ca:	2220      	movs	r2, #32
 80009cc:	2100      	movs	r1, #0
 80009ce:	4618      	mov	r0, r3
 80009d0:	f002 f916 	bl	8002c00 <memset>
	uint8_t index = 0;
 80009d4:	2300      	movs	r3, #0
 80009d6:	f887 302e 	strb.w	r3, [r7, #46]	; 0x2e
	for (uint8_t i = 0; i < lenght; i++) {
 80009da:	2300      	movs	r3, #0
 80009dc:	f887 302d 	strb.w	r3, [r7, #45]	; 0x2d
 80009e0:	e01f      	b.n	8000a22 <ParseReceivedCommandValue+0x72>
		uint8_t chr = cmdData[i];
 80009e2:	f897 302d 	ldrb.w	r3, [r7, #45]	; 0x2d
 80009e6:	687a      	ldr	r2, [r7, #4]
 80009e8:	4413      	add	r3, r2
 80009ea:	781b      	ldrb	r3, [r3, #0]
 80009ec:	f887 302c 	strb.w	r3, [r7, #44]	; 0x2c
		if (chr >= '0' && chr <= '9') {
 80009f0:	f897 302c 	ldrb.w	r3, [r7, #44]	; 0x2c
 80009f4:	2b2f      	cmp	r3, #47	; 0x2f
 80009f6:	d90f      	bls.n	8000a18 <ParseReceivedCommandValue+0x68>
 80009f8:	f897 302c 	ldrb.w	r3, [r7, #44]	; 0x2c
 80009fc:	2b39      	cmp	r3, #57	; 0x39
 80009fe:	d80b      	bhi.n	8000a18 <ParseReceivedCommandValue+0x68>
			array[index++] = chr;
 8000a00:	f897 302e 	ldrb.w	r3, [r7, #46]	; 0x2e
 8000a04:	1c5a      	adds	r2, r3, #1
 8000a06:	f887 202e 	strb.w	r2, [r7, #46]	; 0x2e
 8000a0a:	f107 0230 	add.w	r2, r7, #48	; 0x30
 8000a0e:	4413      	add	r3, r2
 8000a10:	f897 202c 	ldrb.w	r2, [r7, #44]	; 0x2c
 8000a14:	f803 2c28 	strb.w	r2, [r3, #-40]
	for (uint8_t i = 0; i < lenght; i++) {
 8000a18:	f897 302d 	ldrb.w	r3, [r7, #45]	; 0x2d
 8000a1c:	3301      	adds	r3, #1
 8000a1e:	f887 302d 	strb.w	r3, [r7, #45]	; 0x2d
 8000a22:	f897 202d 	ldrb.w	r2, [r7, #45]	; 0x2d
 8000a26:	78fb      	ldrb	r3, [r7, #3]
 8000a28:	429a      	cmp	r2, r3
 8000a2a:	d3da      	bcc.n	80009e2 <ParseReceivedCommandValue+0x32>
		}
	}
	if (index > 0)
 8000a2c:	f897 302e 	ldrb.w	r3, [r7, #46]	; 0x2e
 8000a30:	2b00      	cmp	r3, #0
 8000a32:	d007      	beq.n	8000a44 <ParseReceivedCommandValue+0x94>
		result = atoi((const char*) array);
 8000a34:	f107 0308 	add.w	r3, r7, #8
 8000a38:	4618      	mov	r0, r3
 8000a3a:	f002 f8b3 	bl	8002ba4 <atoi>
 8000a3e:	4603      	mov	r3, r0
 8000a40:	f887 302f 	strb.w	r3, [r7, #47]	; 0x2f
	return result;
 8000a44:	f997 302f 	ldrsb.w	r3, [r7, #47]	; 0x2f
}
 8000a48:	4618      	mov	r0, r3
 8000a4a:	3730      	adds	r7, #48	; 0x30
 8000a4c:	46bd      	mov	sp, r7
 8000a4e:	bd80      	pop	{r7, pc}

08000a50 <LL_DMA_IsActiveFlag_TC6>:
  * @rmtoll ISR          TCIF6         LL_DMA_IsActiveFlag_TC6
  * @param  DMAx DMAx Instance
  * @retval State of bit (1 or 0).
  */
__STATIC_INLINE uint32_t LL_DMA_IsActiveFlag_TC6(DMA_TypeDef *DMAx)
{
 8000a50:	b480      	push	{r7}
 8000a52:	b083      	sub	sp, #12
 8000a54:	af00      	add	r7, sp, #0
 8000a56:	6078      	str	r0, [r7, #4]
  return (READ_BIT(DMAx->ISR, DMA_ISR_TCIF6) == (DMA_ISR_TCIF6));
 8000a58:	687b      	ldr	r3, [r7, #4]
 8000a5a:	681b      	ldr	r3, [r3, #0]
 8000a5c:	f403 1300 	and.w	r3, r3, #2097152	; 0x200000
 8000a60:	f5b3 1f00 	cmp.w	r3, #2097152	; 0x200000
 8000a64:	bf0c      	ite	eq
 8000a66:	2301      	moveq	r3, #1
 8000a68:	2300      	movne	r3, #0
 8000a6a:	b2db      	uxtb	r3, r3
}
 8000a6c:	4618      	mov	r0, r3
 8000a6e:	370c      	adds	r7, #12
 8000a70:	46bd      	mov	sp, r7
 8000a72:	f85d 7b04 	ldr.w	r7, [sp], #4
 8000a76:	4770      	bx	lr

08000a78 <LL_DMA_IsActiveFlag_HT6>:
  * @rmtoll ISR          HTIF6         LL_DMA_IsActiveFlag_HT6
  * @param  DMAx DMAx Instance
  * @retval State of bit (1 or 0).
  */
__STATIC_INLINE uint32_t LL_DMA_IsActiveFlag_HT6(DMA_TypeDef *DMAx)
{
 8000a78:	b480      	push	{r7}
 8000a7a:	b083      	sub	sp, #12
 8000a7c:	af00      	add	r7, sp, #0
 8000a7e:	6078      	str	r0, [r7, #4]
  return (READ_BIT(DMAx->ISR, DMA_ISR_HTIF6) == (DMA_ISR_HTIF6));
 8000a80:	687b      	ldr	r3, [r7, #4]
 8000a82:	681b      	ldr	r3, [r3, #0]
 8000a84:	f403 0380 	and.w	r3, r3, #4194304	; 0x400000
 8000a88:	f5b3 0f80 	cmp.w	r3, #4194304	; 0x400000
 8000a8c:	bf0c      	ite	eq
 8000a8e:	2301      	moveq	r3, #1
 8000a90:	2300      	movne	r3, #0
 8000a92:	b2db      	uxtb	r3, r3
}
 8000a94:	4618      	mov	r0, r3
 8000a96:	370c      	adds	r7, #12
 8000a98:	46bd      	mov	sp, r7
 8000a9a:	f85d 7b04 	ldr.w	r7, [sp], #4
 8000a9e:	4770      	bx	lr

08000aa0 <LL_DMA_ClearFlag_TC6>:
  * @rmtoll IFCR         CTCIF6        LL_DMA_ClearFlag_TC6
  * @param  DMAx DMAx Instance
  * @retval None
  */
__STATIC_INLINE void LL_DMA_ClearFlag_TC6(DMA_TypeDef *DMAx)
{
 8000aa0:	b480      	push	{r7}
 8000aa2:	b083      	sub	sp, #12
 8000aa4:	af00      	add	r7, sp, #0
 8000aa6:	6078      	str	r0, [r7, #4]
  WRITE_REG(DMAx->IFCR, DMA_IFCR_CTCIF6);
 8000aa8:	687b      	ldr	r3, [r7, #4]
 8000aaa:	f44f 1200 	mov.w	r2, #2097152	; 0x200000
 8000aae:	605a      	str	r2, [r3, #4]
}
 8000ab0:	bf00      	nop
 8000ab2:	370c      	adds	r7, #12
 8000ab4:	46bd      	mov	sp, r7
 8000ab6:	f85d 7b04 	ldr.w	r7, [sp], #4
 8000aba:	4770      	bx	lr

08000abc <LL_DMA_ClearFlag_HT6>:
  * @rmtoll IFCR         CHTIF6        LL_DMA_ClearFlag_HT6
  * @param  DMAx DMAx Instance
  * @retval None
  */
__STATIC_INLINE void LL_DMA_ClearFlag_HT6(DMA_TypeDef *DMAx)
{
 8000abc:	b480      	push	{r7}
 8000abe:	b083      	sub	sp, #12
 8000ac0:	af00      	add	r7, sp, #0
 8000ac2:	6078      	str	r0, [r7, #4]
  WRITE_REG(DMAx->IFCR, DMA_IFCR_CHTIF6);
 8000ac4:	687b      	ldr	r3, [r7, #4]
 8000ac6:	f44f 0280 	mov.w	r2, #4194304	; 0x400000
 8000aca:	605a      	str	r2, [r3, #4]
}
 8000acc:	bf00      	nop
 8000ace:	370c      	adds	r7, #12
 8000ad0:	46bd      	mov	sp, r7
 8000ad2:	f85d 7b04 	ldr.w	r7, [sp], #4
 8000ad6:	4770      	bx	lr

08000ad8 <LL_TIM_ClearFlag_UPDATE>:
  * @rmtoll SR           UIF           LL_TIM_ClearFlag_UPDATE
  * @param  TIMx Timer instance
  * @retval None
  */
__STATIC_INLINE void LL_TIM_ClearFlag_UPDATE(TIM_TypeDef *TIMx)
{
 8000ad8:	b480      	push	{r7}
 8000ada:	b083      	sub	sp, #12
 8000adc:	af00      	add	r7, sp, #0
 8000ade:	6078      	str	r0, [r7, #4]
  WRITE_REG(TIMx->SR, ~(TIM_SR_UIF));
 8000ae0:	687b      	ldr	r3, [r7, #4]
 8000ae2:	f06f 0201 	mvn.w	r2, #1
 8000ae6:	611a      	str	r2, [r3, #16]
}
 8000ae8:	bf00      	nop
 8000aea:	370c      	adds	r7, #12
 8000aec:	46bd      	mov	sp, r7
 8000aee:	f85d 7b04 	ldr.w	r7, [sp], #4
 8000af2:	4770      	bx	lr

08000af4 <LL_TIM_IsActiveFlag_UPDATE>:
  * @rmtoll SR           UIF           LL_TIM_IsActiveFlag_UPDATE
  * @param  TIMx Timer instance
  * @retval State of bit (1 or 0).
  */
__STATIC_INLINE uint32_t LL_TIM_IsActiveFlag_UPDATE(TIM_TypeDef *TIMx)
{
 8000af4:	b480      	push	{r7}
 8000af6:	b083      	sub	sp, #12
 8000af8:	af00      	add	r7, sp, #0
 8000afa:	6078      	str	r0, [r7, #4]
  return ((READ_BIT(TIMx->SR, TIM_SR_UIF) == (TIM_SR_UIF)) ? 1UL : 0UL);
 8000afc:	687b      	ldr	r3, [r7, #4]
 8000afe:	691b      	ldr	r3, [r3, #16]
 8000b00:	f003 0301 	and.w	r3, r3, #1
 8000b04:	2b01      	cmp	r3, #1
 8000b06:	d101      	bne.n	8000b0c <LL_TIM_IsActiveFlag_UPDATE+0x18>
 8000b08:	2301      	movs	r3, #1
 8000b0a:	e000      	b.n	8000b0e <LL_TIM_IsActiveFlag_UPDATE+0x1a>
 8000b0c:	2300      	movs	r3, #0
}
 8000b0e:	4618      	mov	r0, r3
 8000b10:	370c      	adds	r7, #12
 8000b12:	46bd      	mov	sp, r7
 8000b14:	f85d 7b04 	ldr.w	r7, [sp], #4
 8000b18:	4770      	bx	lr

08000b1a <LL_USART_IsActiveFlag_IDLE>:
  * @rmtoll ISR          IDLE          LL_USART_IsActiveFlag_IDLE
  * @param  USARTx USART Instance
  * @retval State of bit (1 or 0).
  */
__STATIC_INLINE uint32_t LL_USART_IsActiveFlag_IDLE(USART_TypeDef *USARTx)
{
 8000b1a:	b480      	push	{r7}
 8000b1c:	b083      	sub	sp, #12
 8000b1e:	af00      	add	r7, sp, #0
 8000b20:	6078      	str	r0, [r7, #4]
  return ((READ_BIT(USARTx->ISR, USART_ISR_IDLE) == (USART_ISR_IDLE)) ? 1UL : 0UL);
 8000b22:	687b      	ldr	r3, [r7, #4]
 8000b24:	69db      	ldr	r3, [r3, #28]
 8000b26:	f003 0310 	and.w	r3, r3, #16
 8000b2a:	2b10      	cmp	r3, #16
 8000b2c:	d101      	bne.n	8000b32 <LL_USART_IsActiveFlag_IDLE+0x18>
 8000b2e:	2301      	movs	r3, #1
 8000b30:	e000      	b.n	8000b34 <LL_USART_IsActiveFlag_IDLE+0x1a>
 8000b32:	2300      	movs	r3, #0
}
 8000b34:	4618      	mov	r0, r3
 8000b36:	370c      	adds	r7, #12
 8000b38:	46bd      	mov	sp, r7
 8000b3a:	f85d 7b04 	ldr.w	r7, [sp], #4
 8000b3e:	4770      	bx	lr

08000b40 <LL_USART_ClearFlag_IDLE>:
  * @rmtoll ICR          IDLECF        LL_USART_ClearFlag_IDLE
  * @param  USARTx USART Instance
  * @retval None
  */
__STATIC_INLINE void LL_USART_ClearFlag_IDLE(USART_TypeDef *USARTx)
{
 8000b40:	b480      	push	{r7}
 8000b42:	b083      	sub	sp, #12
 8000b44:	af00      	add	r7, sp, #0
 8000b46:	6078      	str	r0, [r7, #4]
  WRITE_REG(USARTx->ICR, USART_ICR_IDLECF);
 8000b48:	687b      	ldr	r3, [r7, #4]
 8000b4a:	2210      	movs	r2, #16
 8000b4c:	621a      	str	r2, [r3, #32]
}
 8000b4e:	bf00      	nop
 8000b50:	370c      	adds	r7, #12
 8000b52:	46bd      	mov	sp, r7
 8000b54:	f85d 7b04 	ldr.w	r7, [sp], #4
 8000b58:	4770      	bx	lr

08000b5a <NMI_Handler>:
/*           Cortex-M4 Processor Interruption and Exception Handlers          */
/******************************************************************************/
/**
 * @brief This function handles Non maskable interrupt.
 */
void NMI_Handler(void) {
 8000b5a:	b480      	push	{r7}
 8000b5c:	af00      	add	r7, sp, #0
	/* USER CODE BEGIN NonMaskableInt_IRQn 0 */

	/* USER CODE END NonMaskableInt_IRQn 0 */
	/* USER CODE BEGIN NonMaskableInt_IRQn 1 */
	while (1) {
 8000b5e:	e7fe      	b.n	8000b5e <NMI_Handler+0x4>

08000b60 <HardFault_Handler>:
}

/**
 * @brief This function handles Hard fault interrupt.
 */
void HardFault_Handler(void) {
 8000b60:	b480      	push	{r7}
 8000b62:	af00      	add	r7, sp, #0
	/* USER CODE BEGIN HardFault_IRQn 0 */

	/* USER CODE END HardFault_IRQn 0 */
	while (1) {
 8000b64:	e7fe      	b.n	8000b64 <HardFault_Handler+0x4>

08000b66 <MemManage_Handler>:
}

/**
 * @brief This function handles Memory management fault.
 */
void MemManage_Handler(void) {
 8000b66:	b480      	push	{r7}
 8000b68:	af00      	add	r7, sp, #0
	/* USER CODE BEGIN MemoryManagement_IRQn 0 */

	/* USER CODE END MemoryManagement_IRQn 0 */
	while (1) {
 8000b6a:	e7fe      	b.n	8000b6a <MemManage_Handler+0x4>

08000b6c <BusFault_Handler>:
}

/**
 * @brief This function handles Pre-fetch fault, memory access fault.
 */
void BusFault_Handler(void) {
 8000b6c:	b480      	push	{r7}
 8000b6e:	af00      	add	r7, sp, #0
	/* USER CODE BEGIN BusFault_IRQn 0 */

	/* USER CODE END BusFault_IRQn 0 */
	while (1) {
 8000b70:	e7fe      	b.n	8000b70 <BusFault_Handler+0x4>

08000b72 <UsageFault_Handler>:
}

/**
 * @brief This function handles Undefined instruction or illegal state.
 */
void UsageFault_Handler(void) {
 8000b72:	b480      	push	{r7}
 8000b74:	af00      	add	r7, sp, #0
	/* USER CODE BEGIN UsageFault_IRQn 0 */

	/* USER CODE END UsageFault_IRQn 0 */
	while (1) {
 8000b76:	e7fe      	b.n	8000b76 <UsageFault_Handler+0x4>

08000b78 <SVC_Handler>:
}

/**
 * @brief This function handles System service call via SWI instruction.
 */
void SVC_Handler(void) {
 8000b78:	b480      	push	{r7}
 8000b7a:	af00      	add	r7, sp, #0

	/* USER CODE END SVCall_IRQn 0 */
	/* USER CODE BEGIN SVCall_IRQn 1 */

	/* USER CODE END SVCall_IRQn 1 */
}
 8000b7c:	bf00      	nop
 8000b7e:	46bd      	mov	sp, r7
 8000b80:	f85d 7b04 	ldr.w	r7, [sp], #4
 8000b84:	4770      	bx	lr

08000b86 <DebugMon_Handler>:

/**
 * @brief This function handles Debug monitor.
 */
void DebugMon_Handler(void) {
 8000b86:	b480      	push	{r7}
 8000b88:	af00      	add	r7, sp, #0

	/* USER CODE END DebugMonitor_IRQn 0 */
	/* USER CODE BEGIN DebugMonitor_IRQn 1 */

	/* USER CODE END DebugMonitor_IRQn 1 */
}
 8000b8a:	bf00      	nop
 8000b8c:	46bd      	mov	sp, r7
 8000b8e:	f85d 7b04 	ldr.w	r7, [sp], #4
 8000b92:	4770      	bx	lr

08000b94 <PendSV_Handler>:

/**
 * @brief This function handles Pendable request for system service.
 */
void PendSV_Handler(void) {
 8000b94:	b480      	push	{r7}
 8000b96:	af00      	add	r7, sp, #0

	/* USER CODE END PendSV_IRQn 0 */
	/* USER CODE BEGIN PendSV_IRQn 1 */

	/* USER CODE END PendSV_IRQn 1 */
}
 8000b98:	bf00      	nop
 8000b9a:	46bd      	mov	sp, r7
 8000b9c:	f85d 7b04 	ldr.w	r7, [sp], #4
 8000ba0:	4770      	bx	lr

08000ba2 <SysTick_Handler>:

/**
 * @brief This function handles System tick timer.
 */
void SysTick_Handler(void) {
 8000ba2:	b480      	push	{r7}
 8000ba4:	af00      	add	r7, sp, #0
	/* USER CODE END SysTick_IRQn 0 */

	/* USER CODE BEGIN SysTick_IRQn 1 */

	/* USER CODE END SysTick_IRQn 1 */
}
 8000ba6:	bf00      	nop
 8000ba8:	46bd      	mov	sp, r7
 8000baa:	f85d 7b04 	ldr.w	r7, [sp], #4
 8000bae:	4770      	bx	lr

08000bb0 <DMA1_Channel6_IRQHandler>:
/******************************************************************************/

/**
 * @brief This function handles DMA1 channel6 global interrupt.
 */
void DMA1_Channel6_IRQHandler(void) {
 8000bb0:	b580      	push	{r7, lr}
 8000bb2:	af00      	add	r7, sp, #0
	/* USER CODE BEGIN DMA1_Channel6_IRQn 0 */
	if (LL_DMA_IsActiveFlag_TC6(DMA1) == SET) {
 8000bb4:	480c      	ldr	r0, [pc, #48]	; (8000be8 <DMA1_Channel6_IRQHandler+0x38>)
 8000bb6:	f7ff ff4b 	bl	8000a50 <LL_DMA_IsActiveFlag_TC6>
 8000bba:	4603      	mov	r3, r0
 8000bbc:	2b01      	cmp	r3, #1
 8000bbe:	d105      	bne.n	8000bcc <DMA1_Channel6_IRQHandler+0x1c>
		USART2_CheckDmaReception();
 8000bc0:	f000 ff34 	bl	8001a2c <USART2_CheckDmaReception>
		LL_DMA_ClearFlag_TC6(DMA1);
 8000bc4:	4808      	ldr	r0, [pc, #32]	; (8000be8 <DMA1_Channel6_IRQHandler+0x38>)
 8000bc6:	f7ff ff6b 	bl	8000aa0 <LL_DMA_ClearFlag_TC6>
	/* USER CODE END DMA1_Channel6_IRQn 0 */

	/* USER CODE BEGIN DMA1_Channel6_IRQn 1 */

	/* USER CODE END DMA1_Channel6_IRQn 1 */
}
 8000bca:	e00a      	b.n	8000be2 <DMA1_Channel6_IRQHandler+0x32>
	} else if (LL_DMA_IsActiveFlag_HT6(DMA1) == SET) {
 8000bcc:	4806      	ldr	r0, [pc, #24]	; (8000be8 <DMA1_Channel6_IRQHandler+0x38>)
 8000bce:	f7ff ff53 	bl	8000a78 <LL_DMA_IsActiveFlag_HT6>
 8000bd2:	4603      	mov	r3, r0
 8000bd4:	2b01      	cmp	r3, #1
 8000bd6:	d104      	bne.n	8000be2 <DMA1_Channel6_IRQHandler+0x32>
		USART2_CheckDmaReception();
 8000bd8:	f000 ff28 	bl	8001a2c <USART2_CheckDmaReception>
		LL_DMA_ClearFlag_HT6(DMA1);
 8000bdc:	4802      	ldr	r0, [pc, #8]	; (8000be8 <DMA1_Channel6_IRQHandler+0x38>)
 8000bde:	f7ff ff6d 	bl	8000abc <LL_DMA_ClearFlag_HT6>
}
 8000be2:	bf00      	nop
 8000be4:	bd80      	pop	{r7, pc}
 8000be6:	bf00      	nop
 8000be8:	40020000 	.word	0x40020000

08000bec <TIM2_IRQHandler>:

/**
 * @brief This function handles TIM2 global interrupt.
 */
void TIM2_IRQHandler(void) {
 8000bec:	b580      	push	{r7, lr}
 8000bee:	af00      	add	r7, sp, #0
	/* USER CODE BEGIN TIM2_IRQn 0 */
	if (LL_TIM_IsActiveFlag_UPDATE(TIM2)) {
 8000bf0:	f04f 4080 	mov.w	r0, #1073741824	; 0x40000000
 8000bf4:	f7ff ff7e 	bl	8000af4 <LL_TIM_IsActiveFlag_UPDATE>
 8000bf8:	4603      	mov	r3, r0
 8000bfa:	2b00      	cmp	r3, #0
 8000bfc:	d004      	beq.n	8000c08 <TIM2_IRQHandler+0x1c>
		setDutyCycle(PWM_Value);
 8000bfe:	4b05      	ldr	r3, [pc, #20]	; (8000c14 <TIM2_IRQHandler+0x28>)
 8000c00:	781b      	ldrb	r3, [r3, #0]
 8000c02:	4618      	mov	r0, r3
 8000c04:	f7ff fd76 	bl	80006f4 <setDutyCycle>
	}
	/* USER CODE END TIM2_IRQn 0 */
	/* USER CODE BEGIN TIM2_IRQn 1 */
	LL_TIM_ClearFlag_UPDATE(TIM2);
 8000c08:	f04f 4080 	mov.w	r0, #1073741824	; 0x40000000
 8000c0c:	f7ff ff64 	bl	8000ad8 <LL_TIM_ClearFlag_UPDATE>
	/* USER CODE END TIM2_IRQn 1 */
}
 8000c10:	bf00      	nop
 8000c12:	bd80      	pop	{r7, pc}
 8000c14:	20000098 	.word	0x20000098

08000c18 <USART2_IRQHandler>:

/**
 * @brief This function handles USART2 global interrupt / USART2 wake-up interrupt through EXT line 26.
 */
void USART2_IRQHandler(void) {
 8000c18:	b580      	push	{r7, lr}
 8000c1a:	af00      	add	r7, sp, #0
	/* USER CODE BEGIN USART2_IRQn 0 */
	if (LL_USART_IsActiveFlag_IDLE(USART2)) {
 8000c1c:	4806      	ldr	r0, [pc, #24]	; (8000c38 <USART2_IRQHandler+0x20>)
 8000c1e:	f7ff ff7c 	bl	8000b1a <LL_USART_IsActiveFlag_IDLE>
 8000c22:	4603      	mov	r3, r0
 8000c24:	2b00      	cmp	r3, #0
 8000c26:	d001      	beq.n	8000c2c <USART2_IRQHandler+0x14>
		USART2_CheckDmaReception();
 8000c28:	f000 ff00 	bl	8001a2c <USART2_CheckDmaReception>
	}
	/* USER CODE END USART2_IRQn 0 */
	/* USER CODE BEGIN USART2_IRQn 1 */
	LL_USART_ClearFlag_IDLE(USART2);
 8000c2c:	4802      	ldr	r0, [pc, #8]	; (8000c38 <USART2_IRQHandler+0x20>)
 8000c2e:	f7ff ff87 	bl	8000b40 <LL_USART_ClearFlag_IDLE>
	/* USER CODE END USART2_IRQn 1 */
}
 8000c32:	bf00      	nop
 8000c34:	bd80      	pop	{r7, pc}
 8000c36:	bf00      	nop
 8000c38:	40004400 	.word	0x40004400

08000c3c <SystemInit>:
 8000c3c:	b480      	push	{r7}
 8000c3e:	af00      	add	r7, sp, #0
 8000c40:	4b06      	ldr	r3, [pc, #24]	; (8000c5c <SystemInit+0x20>)
 8000c42:	f8d3 3088 	ldr.w	r3, [r3, #136]	; 0x88
 8000c46:	4a05      	ldr	r2, [pc, #20]	; (8000c5c <SystemInit+0x20>)
 8000c48:	f443 0370 	orr.w	r3, r3, #15728640	; 0xf00000
 8000c4c:	f8c2 3088 	str.w	r3, [r2, #136]	; 0x88
 8000c50:	bf00      	nop
 8000c52:	46bd      	mov	sp, r7
 8000c54:	f85d 7b04 	ldr.w	r7, [sp], #4
 8000c58:	4770      	bx	lr
 8000c5a:	bf00      	nop
 8000c5c:	e000ed00 	.word	0xe000ed00

08000c60 <__NVIC_GetPriorityGrouping>:
{
 8000c60:	b480      	push	{r7}
 8000c62:	af00      	add	r7, sp, #0
  return ((uint32_t)((SCB->AIRCR & SCB_AIRCR_PRIGROUP_Msk) >> SCB_AIRCR_PRIGROUP_Pos));
 8000c64:	4b04      	ldr	r3, [pc, #16]	; (8000c78 <__NVIC_GetPriorityGrouping+0x18>)
 8000c66:	68db      	ldr	r3, [r3, #12]
 8000c68:	0a1b      	lsrs	r3, r3, #8
 8000c6a:	f003 0307 	and.w	r3, r3, #7
}
 8000c6e:	4618      	mov	r0, r3
 8000c70:	46bd      	mov	sp, r7
 8000c72:	f85d 7b04 	ldr.w	r7, [sp], #4
 8000c76:	4770      	bx	lr
 8000c78:	e000ed00 	.word	0xe000ed00

08000c7c <__NVIC_EnableIRQ>:
{
 8000c7c:	b480      	push	{r7}
 8000c7e:	b083      	sub	sp, #12
 8000c80:	af00      	add	r7, sp, #0
 8000c82:	4603      	mov	r3, r0
 8000c84:	71fb      	strb	r3, [r7, #7]
  if ((int32_t)(IRQn) >= 0)
 8000c86:	f997 3007 	ldrsb.w	r3, [r7, #7]
 8000c8a:	2b00      	cmp	r3, #0
 8000c8c:	db0b      	blt.n	8000ca6 <__NVIC_EnableIRQ+0x2a>
    NVIC->ISER[(((uint32_t)IRQn) >> 5UL)] = (uint32_t)(1UL << (((uint32_t)IRQn) & 0x1FUL));
 8000c8e:	79fb      	ldrb	r3, [r7, #7]
 8000c90:	f003 021f 	and.w	r2, r3, #31
 8000c94:	4907      	ldr	r1, [pc, #28]	; (8000cb4 <__NVIC_EnableIRQ+0x38>)
 8000c96:	f997 3007 	ldrsb.w	r3, [r7, #7]
 8000c9a:	095b      	lsrs	r3, r3, #5
 8000c9c:	2001      	movs	r0, #1
 8000c9e:	fa00 f202 	lsl.w	r2, r0, r2
 8000ca2:	f841 2023 	str.w	r2, [r1, r3, lsl #2]
}
 8000ca6:	bf00      	nop
 8000ca8:	370c      	adds	r7, #12
 8000caa:	46bd      	mov	sp, r7
 8000cac:	f85d 7b04 	ldr.w	r7, [sp], #4
 8000cb0:	4770      	bx	lr
 8000cb2:	bf00      	nop
 8000cb4:	e000e100 	.word	0xe000e100

08000cb8 <__NVIC_SetPriority>:
{
 8000cb8:	b480      	push	{r7}
 8000cba:	b083      	sub	sp, #12
 8000cbc:	af00      	add	r7, sp, #0
 8000cbe:	4603      	mov	r3, r0
 8000cc0:	6039      	str	r1, [r7, #0]
 8000cc2:	71fb      	strb	r3, [r7, #7]
  if ((int32_t)(IRQn) >= 0)
 8000cc4:	f997 3007 	ldrsb.w	r3, [r7, #7]
 8000cc8:	2b00      	cmp	r3, #0
 8000cca:	db0a      	blt.n	8000ce2 <__NVIC_SetPriority+0x2a>
    NVIC->IP[((uint32_t)IRQn)]               = (uint8_t)((priority << (8U - __NVIC_PRIO_BITS)) & (uint32_t)0xFFUL);
 8000ccc:	683b      	ldr	r3, [r7, #0]
 8000cce:	b2da      	uxtb	r2, r3
 8000cd0:	490c      	ldr	r1, [pc, #48]	; (8000d04 <__NVIC_SetPriority+0x4c>)
 8000cd2:	f997 3007 	ldrsb.w	r3, [r7, #7]
 8000cd6:	0112      	lsls	r2, r2, #4
 8000cd8:	b2d2      	uxtb	r2, r2
 8000cda:	440b      	add	r3, r1
 8000cdc:	f883 2300 	strb.w	r2, [r3, #768]	; 0x300
}
 8000ce0:	e00a      	b.n	8000cf8 <__NVIC_SetPriority+0x40>
    SCB->SHP[(((uint32_t)IRQn) & 0xFUL)-4UL] = (uint8_t)((priority << (8U - __NVIC_PRIO_BITS)) & (uint32_t)0xFFUL);
 8000ce2:	683b      	ldr	r3, [r7, #0]
 8000ce4:	b2da      	uxtb	r2, r3
 8000ce6:	4908      	ldr	r1, [pc, #32]	; (8000d08 <__NVIC_SetPriority+0x50>)
 8000ce8:	79fb      	ldrb	r3, [r7, #7]
 8000cea:	f003 030f 	and.w	r3, r3, #15
 8000cee:	3b04      	subs	r3, #4
 8000cf0:	0112      	lsls	r2, r2, #4
 8000cf2:	b2d2      	uxtb	r2, r2
 8000cf4:	440b      	add	r3, r1
 8000cf6:	761a      	strb	r2, [r3, #24]
}
 8000cf8:	bf00      	nop
 8000cfa:	370c      	adds	r7, #12
 8000cfc:	46bd      	mov	sp, r7
 8000cfe:	f85d 7b04 	ldr.w	r7, [sp], #4
 8000d02:	4770      	bx	lr
 8000d04:	e000e100 	.word	0xe000e100
 8000d08:	e000ed00 	.word	0xe000ed00

08000d0c <NVIC_EncodePriority>:
{
 8000d0c:	b480      	push	{r7}
 8000d0e:	b089      	sub	sp, #36	; 0x24
 8000d10:	af00      	add	r7, sp, #0
 8000d12:	60f8      	str	r0, [r7, #12]
 8000d14:	60b9      	str	r1, [r7, #8]
 8000d16:	607a      	str	r2, [r7, #4]
  uint32_t PriorityGroupTmp = (PriorityGroup & (uint32_t)0x07UL);   /* only values 0..7 are used          */
 8000d18:	68fb      	ldr	r3, [r7, #12]
 8000d1a:	f003 0307 	and.w	r3, r3, #7
 8000d1e:	61fb      	str	r3, [r7, #28]
  PreemptPriorityBits = ((7UL - PriorityGroupTmp) > (uint32_t)(__NVIC_PRIO_BITS)) ? (uint32_t)(__NVIC_PRIO_BITS) : (uint32_t)(7UL - PriorityGroupTmp);
 8000d20:	69fb      	ldr	r3, [r7, #28]
 8000d22:	f1c3 0307 	rsb	r3, r3, #7
 8000d26:	2b04      	cmp	r3, #4
 8000d28:	bf28      	it	cs
 8000d2a:	2304      	movcs	r3, #4
 8000d2c:	61bb      	str	r3, [r7, #24]
  SubPriorityBits     = ((PriorityGroupTmp + (uint32_t)(__NVIC_PRIO_BITS)) < (uint32_t)7UL) ? (uint32_t)0UL : (uint32_t)((PriorityGroupTmp - 7UL) + (uint32_t)(__NVIC_PRIO_BITS));
 8000d2e:	69fb      	ldr	r3, [r7, #28]
 8000d30:	3304      	adds	r3, #4
 8000d32:	2b06      	cmp	r3, #6
 8000d34:	d902      	bls.n	8000d3c <NVIC_EncodePriority+0x30>
 8000d36:	69fb      	ldr	r3, [r7, #28]
 8000d38:	3b03      	subs	r3, #3
 8000d3a:	e000      	b.n	8000d3e <NVIC_EncodePriority+0x32>
 8000d3c:	2300      	movs	r3, #0
 8000d3e:	617b      	str	r3, [r7, #20]
           ((PreemptPriority & (uint32_t)((1UL << (PreemptPriorityBits)) - 1UL)) << SubPriorityBits) |
 8000d40:	f04f 32ff 	mov.w	r2, #4294967295
 8000d44:	69bb      	ldr	r3, [r7, #24]
 8000d46:	fa02 f303 	lsl.w	r3, r2, r3
 8000d4a:	43da      	mvns	r2, r3
 8000d4c:	68bb      	ldr	r3, [r7, #8]
 8000d4e:	401a      	ands	r2, r3
 8000d50:	697b      	ldr	r3, [r7, #20]
 8000d52:	409a      	lsls	r2, r3
           ((SubPriority     & (uint32_t)((1UL << (SubPriorityBits    )) - 1UL)))
 8000d54:	f04f 31ff 	mov.w	r1, #4294967295
 8000d58:	697b      	ldr	r3, [r7, #20]
 8000d5a:	fa01 f303 	lsl.w	r3, r1, r3
 8000d5e:	43d9      	mvns	r1, r3
 8000d60:	687b      	ldr	r3, [r7, #4]
 8000d62:	400b      	ands	r3, r1
           ((PreemptPriority & (uint32_t)((1UL << (PreemptPriorityBits)) - 1UL)) << SubPriorityBits) |
 8000d64:	4313      	orrs	r3, r2
}
 8000d66:	4618      	mov	r0, r3
 8000d68:	3724      	adds	r7, #36	; 0x24
 8000d6a:	46bd      	mov	sp, r7
 8000d6c:	f85d 7b04 	ldr.w	r7, [sp], #4
 8000d70:	4770      	bx	lr
	...

08000d74 <LL_AHB1_GRP1_EnableClock>:
{
 8000d74:	b480      	push	{r7}
 8000d76:	b085      	sub	sp, #20
 8000d78:	af00      	add	r7, sp, #0
 8000d7a:	6078      	str	r0, [r7, #4]
  SET_BIT(RCC->AHBENR, Periphs);
 8000d7c:	4b08      	ldr	r3, [pc, #32]	; (8000da0 <LL_AHB1_GRP1_EnableClock+0x2c>)
 8000d7e:	695a      	ldr	r2, [r3, #20]
 8000d80:	4907      	ldr	r1, [pc, #28]	; (8000da0 <LL_AHB1_GRP1_EnableClock+0x2c>)
 8000d82:	687b      	ldr	r3, [r7, #4]
 8000d84:	4313      	orrs	r3, r2
 8000d86:	614b      	str	r3, [r1, #20]
  tmpreg = READ_BIT(RCC->AHBENR, Periphs);
 8000d88:	4b05      	ldr	r3, [pc, #20]	; (8000da0 <LL_AHB1_GRP1_EnableClock+0x2c>)
 8000d8a:	695a      	ldr	r2, [r3, #20]
 8000d8c:	687b      	ldr	r3, [r7, #4]
 8000d8e:	4013      	ands	r3, r2
 8000d90:	60fb      	str	r3, [r7, #12]
  (void)tmpreg;
 8000d92:	68fb      	ldr	r3, [r7, #12]
}
 8000d94:	bf00      	nop
 8000d96:	3714      	adds	r7, #20
 8000d98:	46bd      	mov	sp, r7
 8000d9a:	f85d 7b04 	ldr.w	r7, [sp], #4
 8000d9e:	4770      	bx	lr
 8000da0:	40021000 	.word	0x40021000

08000da4 <LL_APB1_GRP1_EnableClock>:
{
 8000da4:	b480      	push	{r7}
 8000da6:	b085      	sub	sp, #20
 8000da8:	af00      	add	r7, sp, #0
 8000daa:	6078      	str	r0, [r7, #4]
  SET_BIT(RCC->APB1ENR, Periphs);
 8000dac:	4b08      	ldr	r3, [pc, #32]	; (8000dd0 <LL_APB1_GRP1_EnableClock+0x2c>)
 8000dae:	69da      	ldr	r2, [r3, #28]
 8000db0:	4907      	ldr	r1, [pc, #28]	; (8000dd0 <LL_APB1_GRP1_EnableClock+0x2c>)
 8000db2:	687b      	ldr	r3, [r7, #4]
 8000db4:	4313      	orrs	r3, r2
 8000db6:	61cb      	str	r3, [r1, #28]
  tmpreg = READ_BIT(RCC->APB1ENR, Periphs);
 8000db8:	4b05      	ldr	r3, [pc, #20]	; (8000dd0 <LL_APB1_GRP1_EnableClock+0x2c>)
 8000dba:	69da      	ldr	r2, [r3, #28]
 8000dbc:	687b      	ldr	r3, [r7, #4]
 8000dbe:	4013      	ands	r3, r2
 8000dc0:	60fb      	str	r3, [r7, #12]
  (void)tmpreg;
 8000dc2:	68fb      	ldr	r3, [r7, #12]
}
 8000dc4:	bf00      	nop
 8000dc6:	3714      	adds	r7, #20
 8000dc8:	46bd      	mov	sp, r7
 8000dca:	f85d 7b04 	ldr.w	r7, [sp], #4
 8000dce:	4770      	bx	lr
 8000dd0:	40021000 	.word	0x40021000

08000dd4 <LL_TIM_EnableCounter>:
{
 8000dd4:	b480      	push	{r7}
 8000dd6:	b083      	sub	sp, #12
 8000dd8:	af00      	add	r7, sp, #0
 8000dda:	6078      	str	r0, [r7, #4]
  SET_BIT(TIMx->CR1, TIM_CR1_CEN);
 8000ddc:	687b      	ldr	r3, [r7, #4]
 8000dde:	681b      	ldr	r3, [r3, #0]
 8000de0:	f043 0201 	orr.w	r2, r3, #1
 8000de4:	687b      	ldr	r3, [r7, #4]
 8000de6:	601a      	str	r2, [r3, #0]
}
 8000de8:	bf00      	nop
 8000dea:	370c      	adds	r7, #12
 8000dec:	46bd      	mov	sp, r7
 8000dee:	f85d 7b04 	ldr.w	r7, [sp], #4
 8000df2:	4770      	bx	lr

08000df4 <LL_TIM_DisableARRPreload>:
{
 8000df4:	b480      	push	{r7}
 8000df6:	b083      	sub	sp, #12
 8000df8:	af00      	add	r7, sp, #0
 8000dfa:	6078      	str	r0, [r7, #4]
  CLEAR_BIT(TIMx->CR1, TIM_CR1_ARPE);
 8000dfc:	687b      	ldr	r3, [r7, #4]
 8000dfe:	681b      	ldr	r3, [r3, #0]
 8000e00:	f023 0280 	bic.w	r2, r3, #128	; 0x80
 8000e04:	687b      	ldr	r3, [r7, #4]
 8000e06:	601a      	str	r2, [r3, #0]
}
 8000e08:	bf00      	nop
 8000e0a:	370c      	adds	r7, #12
 8000e0c:	46bd      	mov	sp, r7
 8000e0e:	f85d 7b04 	ldr.w	r7, [sp], #4
 8000e12:	4770      	bx	lr

08000e14 <LL_TIM_CC_EnableChannel>:
{
 8000e14:	b480      	push	{r7}
 8000e16:	b083      	sub	sp, #12
 8000e18:	af00      	add	r7, sp, #0
 8000e1a:	6078      	str	r0, [r7, #4]
 8000e1c:	6039      	str	r1, [r7, #0]
  SET_BIT(TIMx->CCER, Channels);
 8000e1e:	687b      	ldr	r3, [r7, #4]
 8000e20:	6a1a      	ldr	r2, [r3, #32]
 8000e22:	683b      	ldr	r3, [r7, #0]
 8000e24:	431a      	orrs	r2, r3
 8000e26:	687b      	ldr	r3, [r7, #4]
 8000e28:	621a      	str	r2, [r3, #32]
}
 8000e2a:	bf00      	nop
 8000e2c:	370c      	adds	r7, #12
 8000e2e:	46bd      	mov	sp, r7
 8000e30:	f85d 7b04 	ldr.w	r7, [sp], #4
 8000e34:	4770      	bx	lr
	...

08000e38 <LL_TIM_OC_DisableFast>:
{
 8000e38:	b480      	push	{r7}
 8000e3a:	b085      	sub	sp, #20
 8000e3c:	af00      	add	r7, sp, #0
 8000e3e:	6078      	str	r0, [r7, #4]
 8000e40:	6039      	str	r1, [r7, #0]
  uint8_t iChannel = TIM_GET_CHANNEL_INDEX(Channel);
 8000e42:	683b      	ldr	r3, [r7, #0]
 8000e44:	2b01      	cmp	r3, #1
 8000e46:	d028      	beq.n	8000e9a <LL_TIM_OC_DisableFast+0x62>
 8000e48:	683b      	ldr	r3, [r7, #0]
 8000e4a:	2b04      	cmp	r3, #4
 8000e4c:	d023      	beq.n	8000e96 <LL_TIM_OC_DisableFast+0x5e>
 8000e4e:	683b      	ldr	r3, [r7, #0]
 8000e50:	2b10      	cmp	r3, #16
 8000e52:	d01e      	beq.n	8000e92 <LL_TIM_OC_DisableFast+0x5a>
 8000e54:	683b      	ldr	r3, [r7, #0]
 8000e56:	2b40      	cmp	r3, #64	; 0x40
 8000e58:	d019      	beq.n	8000e8e <LL_TIM_OC_DisableFast+0x56>
 8000e5a:	683b      	ldr	r3, [r7, #0]
 8000e5c:	f5b3 7f80 	cmp.w	r3, #256	; 0x100
 8000e60:	d013      	beq.n	8000e8a <LL_TIM_OC_DisableFast+0x52>
 8000e62:	683b      	ldr	r3, [r7, #0]
 8000e64:	f5b3 6f80 	cmp.w	r3, #1024	; 0x400
 8000e68:	d00d      	beq.n	8000e86 <LL_TIM_OC_DisableFast+0x4e>
 8000e6a:	683b      	ldr	r3, [r7, #0]
 8000e6c:	f5b3 5f80 	cmp.w	r3, #4096	; 0x1000
 8000e70:	d007      	beq.n	8000e82 <LL_TIM_OC_DisableFast+0x4a>
 8000e72:	683b      	ldr	r3, [r7, #0]
 8000e74:	f5b3 3f80 	cmp.w	r3, #65536	; 0x10000
 8000e78:	d101      	bne.n	8000e7e <LL_TIM_OC_DisableFast+0x46>
 8000e7a:	2307      	movs	r3, #7
 8000e7c:	e00e      	b.n	8000e9c <LL_TIM_OC_DisableFast+0x64>
 8000e7e:	2308      	movs	r3, #8
 8000e80:	e00c      	b.n	8000e9c <LL_TIM_OC_DisableFast+0x64>
 8000e82:	2306      	movs	r3, #6
 8000e84:	e00a      	b.n	8000e9c <LL_TIM_OC_DisableFast+0x64>
 8000e86:	2305      	movs	r3, #5
 8000e88:	e008      	b.n	8000e9c <LL_TIM_OC_DisableFast+0x64>
 8000e8a:	2304      	movs	r3, #4
 8000e8c:	e006      	b.n	8000e9c <LL_TIM_OC_DisableFast+0x64>
 8000e8e:	2303      	movs	r3, #3
 8000e90:	e004      	b.n	8000e9c <LL_TIM_OC_DisableFast+0x64>
 8000e92:	2302      	movs	r3, #2
 8000e94:	e002      	b.n	8000e9c <LL_TIM_OC_DisableFast+0x64>
 8000e96:	2301      	movs	r3, #1
 8000e98:	e000      	b.n	8000e9c <LL_TIM_OC_DisableFast+0x64>
 8000e9a:	2300      	movs	r3, #0
 8000e9c:	73fb      	strb	r3, [r7, #15]
  __IO uint32_t *pReg = (__IO uint32_t *)((uint32_t)((uint32_t)(&TIMx->CCMR1) + OFFSET_TAB_CCMRx[iChannel]));
 8000e9e:	687b      	ldr	r3, [r7, #4]
 8000ea0:	3318      	adds	r3, #24
 8000ea2:	4619      	mov	r1, r3
 8000ea4:	7bfb      	ldrb	r3, [r7, #15]
 8000ea6:	4a0b      	ldr	r2, [pc, #44]	; (8000ed4 <LL_TIM_OC_DisableFast+0x9c>)
 8000ea8:	5cd3      	ldrb	r3, [r2, r3]
 8000eaa:	440b      	add	r3, r1
 8000eac:	60bb      	str	r3, [r7, #8]
  CLEAR_BIT(*pReg, (TIM_CCMR1_OC1FE << SHIFT_TAB_OCxx[iChannel]));
 8000eae:	68bb      	ldr	r3, [r7, #8]
 8000eb0:	681a      	ldr	r2, [r3, #0]
 8000eb2:	7bfb      	ldrb	r3, [r7, #15]
 8000eb4:	4908      	ldr	r1, [pc, #32]	; (8000ed8 <LL_TIM_OC_DisableFast+0xa0>)
 8000eb6:	5ccb      	ldrb	r3, [r1, r3]
 8000eb8:	4619      	mov	r1, r3
 8000eba:	2304      	movs	r3, #4
 8000ebc:	408b      	lsls	r3, r1
 8000ebe:	43db      	mvns	r3, r3
 8000ec0:	401a      	ands	r2, r3
 8000ec2:	68bb      	ldr	r3, [r7, #8]
 8000ec4:	601a      	str	r2, [r3, #0]
}
 8000ec6:	bf00      	nop
 8000ec8:	3714      	adds	r7, #20
 8000eca:	46bd      	mov	sp, r7
 8000ecc:	f85d 7b04 	ldr.w	r7, [sp], #4
 8000ed0:	4770      	bx	lr
 8000ed2:	bf00      	nop
 8000ed4:	08002db0 	.word	0x08002db0
 8000ed8:	08002dbc 	.word	0x08002dbc

08000edc <LL_TIM_OC_EnablePreload>:
{
 8000edc:	b480      	push	{r7}
 8000ede:	b085      	sub	sp, #20
 8000ee0:	af00      	add	r7, sp, #0
 8000ee2:	6078      	str	r0, [r7, #4]
 8000ee4:	6039      	str	r1, [r7, #0]
  uint8_t iChannel = TIM_GET_CHANNEL_INDEX(Channel);
 8000ee6:	683b      	ldr	r3, [r7, #0]
 8000ee8:	2b01      	cmp	r3, #1
 8000eea:	d028      	beq.n	8000f3e <LL_TIM_OC_EnablePreload+0x62>
 8000eec:	683b      	ldr	r3, [r7, #0]
 8000eee:	2b04      	cmp	r3, #4
 8000ef0:	d023      	beq.n	8000f3a <LL_TIM_OC_EnablePreload+0x5e>
 8000ef2:	683b      	ldr	r3, [r7, #0]
 8000ef4:	2b10      	cmp	r3, #16
 8000ef6:	d01e      	beq.n	8000f36 <LL_TIM_OC_EnablePreload+0x5a>
 8000ef8:	683b      	ldr	r3, [r7, #0]
 8000efa:	2b40      	cmp	r3, #64	; 0x40
 8000efc:	d019      	beq.n	8000f32 <LL_TIM_OC_EnablePreload+0x56>
 8000efe:	683b      	ldr	r3, [r7, #0]
 8000f00:	f5b3 7f80 	cmp.w	r3, #256	; 0x100
 8000f04:	d013      	beq.n	8000f2e <LL_TIM_OC_EnablePreload+0x52>
 8000f06:	683b      	ldr	r3, [r7, #0]
 8000f08:	f5b3 6f80 	cmp.w	r3, #1024	; 0x400
 8000f0c:	d00d      	beq.n	8000f2a <LL_TIM_OC_EnablePreload+0x4e>
 8000f0e:	683b      	ldr	r3, [r7, #0]
 8000f10:	f5b3 5f80 	cmp.w	r3, #4096	; 0x1000
 8000f14:	d007      	beq.n	8000f26 <LL_TIM_OC_EnablePreload+0x4a>
 8000f16:	683b      	ldr	r3, [r7, #0]
 8000f18:	f5b3 3f80 	cmp.w	r3, #65536	; 0x10000
 8000f1c:	d101      	bne.n	8000f22 <LL_TIM_OC_EnablePreload+0x46>
 8000f1e:	2307      	movs	r3, #7
 8000f20:	e00e      	b.n	8000f40 <LL_TIM_OC_EnablePreload+0x64>
 8000f22:	2308      	movs	r3, #8
 8000f24:	e00c      	b.n	8000f40 <LL_TIM_OC_EnablePreload+0x64>
 8000f26:	2306      	movs	r3, #6
 8000f28:	e00a      	b.n	8000f40 <LL_TIM_OC_EnablePreload+0x64>
 8000f2a:	2305      	movs	r3, #5
 8000f2c:	e008      	b.n	8000f40 <LL_TIM_OC_EnablePreload+0x64>
 8000f2e:	2304      	movs	r3, #4
 8000f30:	e006      	b.n	8000f40 <LL_TIM_OC_EnablePreload+0x64>
 8000f32:	2303      	movs	r3, #3
 8000f34:	e004      	b.n	8000f40 <LL_TIM_OC_EnablePreload+0x64>
 8000f36:	2302      	movs	r3, #2
 8000f38:	e002      	b.n	8000f40 <LL_TIM_OC_EnablePreload+0x64>
 8000f3a:	2301      	movs	r3, #1
 8000f3c:	e000      	b.n	8000f40 <LL_TIM_OC_EnablePreload+0x64>
 8000f3e:	2300      	movs	r3, #0
 8000f40:	73fb      	strb	r3, [r7, #15]
  __IO uint32_t *pReg = (__IO uint32_t *)((uint32_t)((uint32_t)(&TIMx->CCMR1) + OFFSET_TAB_CCMRx[iChannel]));
 8000f42:	687b      	ldr	r3, [r7, #4]
 8000f44:	3318      	adds	r3, #24
 8000f46:	4619      	mov	r1, r3
 8000f48:	7bfb      	ldrb	r3, [r7, #15]
 8000f4a:	4a0a      	ldr	r2, [pc, #40]	; (8000f74 <LL_TIM_OC_EnablePreload+0x98>)
 8000f4c:	5cd3      	ldrb	r3, [r2, r3]
 8000f4e:	440b      	add	r3, r1
 8000f50:	60bb      	str	r3, [r7, #8]
  SET_BIT(*pReg, (TIM_CCMR1_OC1PE << SHIFT_TAB_OCxx[iChannel]));
 8000f52:	68bb      	ldr	r3, [r7, #8]
 8000f54:	681a      	ldr	r2, [r3, #0]
 8000f56:	7bfb      	ldrb	r3, [r7, #15]
 8000f58:	4907      	ldr	r1, [pc, #28]	; (8000f78 <LL_TIM_OC_EnablePreload+0x9c>)
 8000f5a:	5ccb      	ldrb	r3, [r1, r3]
 8000f5c:	4619      	mov	r1, r3
 8000f5e:	2308      	movs	r3, #8
 8000f60:	408b      	lsls	r3, r1
 8000f62:	431a      	orrs	r2, r3
 8000f64:	68bb      	ldr	r3, [r7, #8]
 8000f66:	601a      	str	r2, [r3, #0]
}
 8000f68:	bf00      	nop
 8000f6a:	3714      	adds	r7, #20
 8000f6c:	46bd      	mov	sp, r7
 8000f6e:	f85d 7b04 	ldr.w	r7, [sp], #4
 8000f72:	4770      	bx	lr
 8000f74:	08002db0 	.word	0x08002db0
 8000f78:	08002dbc 	.word	0x08002dbc

08000f7c <LL_TIM_SetClockSource>:
{
 8000f7c:	b480      	push	{r7}
 8000f7e:	b083      	sub	sp, #12
 8000f80:	af00      	add	r7, sp, #0
 8000f82:	6078      	str	r0, [r7, #4]
 8000f84:	6039      	str	r1, [r7, #0]
  MODIFY_REG(TIMx->SMCR, TIM_SMCR_SMS | TIM_SMCR_ECE, ClockSource);
 8000f86:	687b      	ldr	r3, [r7, #4]
 8000f88:	689b      	ldr	r3, [r3, #8]
 8000f8a:	f423 33a0 	bic.w	r3, r3, #81920	; 0x14000
 8000f8e:	f023 0307 	bic.w	r3, r3, #7
 8000f92:	683a      	ldr	r2, [r7, #0]
 8000f94:	431a      	orrs	r2, r3
 8000f96:	687b      	ldr	r3, [r7, #4]
 8000f98:	609a      	str	r2, [r3, #8]
}
 8000f9a:	bf00      	nop
 8000f9c:	370c      	adds	r7, #12
 8000f9e:	46bd      	mov	sp, r7
 8000fa0:	f85d 7b04 	ldr.w	r7, [sp], #4
 8000fa4:	4770      	bx	lr

08000fa6 <LL_TIM_SetTriggerOutput>:
{
 8000fa6:	b480      	push	{r7}
 8000fa8:	b083      	sub	sp, #12
 8000faa:	af00      	add	r7, sp, #0
 8000fac:	6078      	str	r0, [r7, #4]
 8000fae:	6039      	str	r1, [r7, #0]
  MODIFY_REG(TIMx->CR2, TIM_CR2_MMS, TimerSynchronization);
 8000fb0:	687b      	ldr	r3, [r7, #4]
 8000fb2:	685b      	ldr	r3, [r3, #4]
 8000fb4:	f023 0270 	bic.w	r2, r3, #112	; 0x70
 8000fb8:	683b      	ldr	r3, [r7, #0]
 8000fba:	431a      	orrs	r2, r3
 8000fbc:	687b      	ldr	r3, [r7, #4]
 8000fbe:	605a      	str	r2, [r3, #4]
}
 8000fc0:	bf00      	nop
 8000fc2:	370c      	adds	r7, #12
 8000fc4:	46bd      	mov	sp, r7
 8000fc6:	f85d 7b04 	ldr.w	r7, [sp], #4
 8000fca:	4770      	bx	lr

08000fcc <LL_TIM_DisableMasterSlaveMode>:
{
 8000fcc:	b480      	push	{r7}
 8000fce:	b083      	sub	sp, #12
 8000fd0:	af00      	add	r7, sp, #0
 8000fd2:	6078      	str	r0, [r7, #4]
  CLEAR_BIT(TIMx->SMCR, TIM_SMCR_MSM);
 8000fd4:	687b      	ldr	r3, [r7, #4]
 8000fd6:	689b      	ldr	r3, [r3, #8]
 8000fd8:	f023 0280 	bic.w	r2, r3, #128	; 0x80
 8000fdc:	687b      	ldr	r3, [r7, #4]
 8000fde:	609a      	str	r2, [r3, #8]
}
 8000fe0:	bf00      	nop
 8000fe2:	370c      	adds	r7, #12
 8000fe4:	46bd      	mov	sp, r7
 8000fe6:	f85d 7b04 	ldr.w	r7, [sp], #4
 8000fea:	4770      	bx	lr

08000fec <LL_TIM_EnableIT_UPDATE>:
  * @rmtoll DIER         UIE           LL_TIM_EnableIT_UPDATE
  * @param  TIMx Timer instance
  * @retval None
  */
__STATIC_INLINE void LL_TIM_EnableIT_UPDATE(TIM_TypeDef *TIMx)
{
 8000fec:	b480      	push	{r7}
 8000fee:	b083      	sub	sp, #12
 8000ff0:	af00      	add	r7, sp, #0
 8000ff2:	6078      	str	r0, [r7, #4]
  SET_BIT(TIMx->DIER, TIM_DIER_UIE);
 8000ff4:	687b      	ldr	r3, [r7, #4]
 8000ff6:	68db      	ldr	r3, [r3, #12]
 8000ff8:	f043 0201 	orr.w	r2, r3, #1
 8000ffc:	687b      	ldr	r3, [r7, #4]
 8000ffe:	60da      	str	r2, [r3, #12]
}
 8001000:	bf00      	nop
 8001002:	370c      	adds	r7, #12
 8001004:	46bd      	mov	sp, r7
 8001006:	f85d 7b04 	ldr.w	r7, [sp], #4
 800100a:	4770      	bx	lr

0800100c <TIM2_RegisterCallback>:
/* USER CODE BEGIN 0 */
/* Declaration and initialization of callback function */
static void (*TIM2_ProcessData)(uint8_t data) = 0;

/* Register callback */
void TIM2_RegisterCallback(void *callback) {
 800100c:	b480      	push	{r7}
 800100e:	b083      	sub	sp, #12
 8001010:	af00      	add	r7, sp, #0
 8001012:	6078      	str	r0, [r7, #4]
	if (callback != 0) {
 8001014:	687b      	ldr	r3, [r7, #4]
 8001016:	2b00      	cmp	r3, #0
 8001018:	d002      	beq.n	8001020 <TIM2_RegisterCallback+0x14>
		TIM2_ProcessData = callback;
 800101a:	687b      	ldr	r3, [r7, #4]
 800101c:	4a03      	ldr	r2, [pc, #12]	; (800102c <TIM2_RegisterCallback+0x20>)
 800101e:	6013      	str	r3, [r2, #0]
	}
}
 8001020:	bf00      	nop
 8001022:	370c      	adds	r7, #12
 8001024:	46bd      	mov	sp, r7
 8001026:	f85d 7b04 	ldr.w	r7, [sp], #4
 800102a:	4770      	bx	lr
 800102c:	20000088 	.word	0x20000088

08001030 <MX_TIM2_Init>:
/* USER CODE END 0 */

/* TIM2 init function */
void MX_TIM2_Init(void)
{
 8001030:	b580      	push	{r7, lr}
 8001032:	b094      	sub	sp, #80	; 0x50
 8001034:	af00      	add	r7, sp, #0

  /* USER CODE BEGIN TIM2_Init 0 */

  /* USER CODE END TIM2_Init 0 */

  LL_TIM_InitTypeDef TIM_InitStruct = {0};
 8001036:	f107 033c 	add.w	r3, r7, #60	; 0x3c
 800103a:	2200      	movs	r2, #0
 800103c:	601a      	str	r2, [r3, #0]
 800103e:	605a      	str	r2, [r3, #4]
 8001040:	609a      	str	r2, [r3, #8]
 8001042:	60da      	str	r2, [r3, #12]
 8001044:	611a      	str	r2, [r3, #16]
  LL_TIM_OC_InitTypeDef TIM_OC_InitStruct = {0};
 8001046:	f107 031c 	add.w	r3, r7, #28
 800104a:	2220      	movs	r2, #32
 800104c:	2100      	movs	r1, #0
 800104e:	4618      	mov	r0, r3
 8001050:	f001 fdd6 	bl	8002c00 <memset>

  LL_GPIO_InitTypeDef GPIO_InitStruct = {0};
 8001054:	1d3b      	adds	r3, r7, #4
 8001056:	2200      	movs	r2, #0
 8001058:	601a      	str	r2, [r3, #0]
 800105a:	605a      	str	r2, [r3, #4]
 800105c:	609a      	str	r2, [r3, #8]
 800105e:	60da      	str	r2, [r3, #12]
 8001060:	611a      	str	r2, [r3, #16]
 8001062:	615a      	str	r2, [r3, #20]
  /* Peripheral clock enable */
  LL_APB1_GRP1_EnableClock(LL_APB1_GRP1_PERIPH_TIM2);
 8001064:	2001      	movs	r0, #1
 8001066:	f7ff fe9d 	bl	8000da4 <LL_APB1_GRP1_EnableClock>

  /* TIM2 interrupt Init */
  NVIC_SetPriority(TIM2_IRQn, NVIC_EncodePriority(NVIC_GetPriorityGrouping(),0, 0));
 800106a:	f7ff fdf9 	bl	8000c60 <__NVIC_GetPriorityGrouping>
 800106e:	4603      	mov	r3, r0
 8001070:	2200      	movs	r2, #0
 8001072:	2100      	movs	r1, #0
 8001074:	4618      	mov	r0, r3
 8001076:	f7ff fe49 	bl	8000d0c <NVIC_EncodePriority>
 800107a:	4603      	mov	r3, r0
 800107c:	4619      	mov	r1, r3
 800107e:	201c      	movs	r0, #28
 8001080:	f7ff fe1a 	bl	8000cb8 <__NVIC_SetPriority>
  NVIC_EnableIRQ(TIM2_IRQn);
 8001084:	201c      	movs	r0, #28
 8001086:	f7ff fdf9 	bl	8000c7c <__NVIC_EnableIRQ>

  /* USER CODE BEGIN TIM2_Init 1 */

  /* USER CODE END TIM2_Init 1 */
  TIM_InitStruct.Prescaler = 799;
 800108a:	f240 331f 	movw	r3, #799	; 0x31f
 800108e:	87bb      	strh	r3, [r7, #60]	; 0x3c
  TIM_InitStruct.CounterMode = LL_TIM_COUNTERMODE_UP;
 8001090:	2300      	movs	r3, #0
 8001092:	643b      	str	r3, [r7, #64]	; 0x40
  TIM_InitStruct.Autoreload = 99;
 8001094:	2363      	movs	r3, #99	; 0x63
 8001096:	647b      	str	r3, [r7, #68]	; 0x44
  TIM_InitStruct.ClockDivision = LL_TIM_CLOCKDIVISION_DIV1;
 8001098:	2300      	movs	r3, #0
 800109a:	64bb      	str	r3, [r7, #72]	; 0x48
  LL_TIM_Init(TIM2, &TIM_InitStruct);
 800109c:	f107 033c 	add.w	r3, r7, #60	; 0x3c
 80010a0:	4619      	mov	r1, r3
 80010a2:	f04f 4080 	mov.w	r0, #1073741824	; 0x40000000
 80010a6:	f001 f8ff 	bl	80022a8 <LL_TIM_Init>
  LL_TIM_DisableARRPreload(TIM2);
 80010aa:	f04f 4080 	mov.w	r0, #1073741824	; 0x40000000
 80010ae:	f7ff fea1 	bl	8000df4 <LL_TIM_DisableARRPreload>
  LL_TIM_SetClockSource(TIM2, LL_TIM_CLOCKSOURCE_INTERNAL);
 80010b2:	2100      	movs	r1, #0
 80010b4:	f04f 4080 	mov.w	r0, #1073741824	; 0x40000000
 80010b8:	f7ff ff60 	bl	8000f7c <LL_TIM_SetClockSource>
  LL_TIM_OC_EnablePreload(TIM2, LL_TIM_CHANNEL_CH1);
 80010bc:	2101      	movs	r1, #1
 80010be:	f04f 4080 	mov.w	r0, #1073741824	; 0x40000000
 80010c2:	f7ff ff0b 	bl	8000edc <LL_TIM_OC_EnablePreload>
  TIM_OC_InitStruct.OCMode = LL_TIM_OCMODE_PWM1;
 80010c6:	2360      	movs	r3, #96	; 0x60
 80010c8:	61fb      	str	r3, [r7, #28]
  TIM_OC_InitStruct.OCState = LL_TIM_OCSTATE_DISABLE;
 80010ca:	2300      	movs	r3, #0
 80010cc:	623b      	str	r3, [r7, #32]
  TIM_OC_InitStruct.OCNState = LL_TIM_OCSTATE_DISABLE;
 80010ce:	2300      	movs	r3, #0
 80010d0:	627b      	str	r3, [r7, #36]	; 0x24
  TIM_OC_InitStruct.CompareValue = 0;
 80010d2:	2300      	movs	r3, #0
 80010d4:	62bb      	str	r3, [r7, #40]	; 0x28
  TIM_OC_InitStruct.OCPolarity = LL_TIM_OCPOLARITY_HIGH;
 80010d6:	2300      	movs	r3, #0
 80010d8:	62fb      	str	r3, [r7, #44]	; 0x2c
  LL_TIM_OC_Init(TIM2, LL_TIM_CHANNEL_CH1, &TIM_OC_InitStruct);
 80010da:	f107 031c 	add.w	r3, r7, #28
 80010de:	461a      	mov	r2, r3
 80010e0:	2101      	movs	r1, #1
 80010e2:	f04f 4080 	mov.w	r0, #1073741824	; 0x40000000
 80010e6:	f001 f951 	bl	800238c <LL_TIM_OC_Init>
  LL_TIM_OC_DisableFast(TIM2, LL_TIM_CHANNEL_CH1);
 80010ea:	2101      	movs	r1, #1
 80010ec:	f04f 4080 	mov.w	r0, #1073741824	; 0x40000000
 80010f0:	f7ff fea2 	bl	8000e38 <LL_TIM_OC_DisableFast>
  TIM_OC_InitStruct.OCMode = LL_TIM_OCMODE_FROZEN;
 80010f4:	2300      	movs	r3, #0
 80010f6:	61fb      	str	r3, [r7, #28]
  LL_TIM_OC_Init(TIM2, LL_TIM_CHANNEL_CH2, &TIM_OC_InitStruct);
 80010f8:	f107 031c 	add.w	r3, r7, #28
 80010fc:	461a      	mov	r2, r3
 80010fe:	2110      	movs	r1, #16
 8001100:	f04f 4080 	mov.w	r0, #1073741824	; 0x40000000
 8001104:	f001 f942 	bl	800238c <LL_TIM_OC_Init>
  LL_TIM_OC_DisableFast(TIM2, LL_TIM_CHANNEL_CH2);
 8001108:	2110      	movs	r1, #16
 800110a:	f04f 4080 	mov.w	r0, #1073741824	; 0x40000000
 800110e:	f7ff fe93 	bl	8000e38 <LL_TIM_OC_DisableFast>
  LL_TIM_SetTriggerOutput(TIM2, LL_TIM_TRGO_RESET);
 8001112:	2100      	movs	r1, #0
 8001114:	f04f 4080 	mov.w	r0, #1073741824	; 0x40000000
 8001118:	f7ff ff45 	bl	8000fa6 <LL_TIM_SetTriggerOutput>
  LL_TIM_DisableMasterSlaveMode(TIM2);
 800111c:	f04f 4080 	mov.w	r0, #1073741824	; 0x40000000
 8001120:	f7ff ff54 	bl	8000fcc <LL_TIM_DisableMasterSlaveMode>
  /* USER CODE BEGIN TIM2_Init 2 */
  LL_TIM_EnableCounter(TIM2);
 8001124:	f04f 4080 	mov.w	r0, #1073741824	; 0x40000000
 8001128:	f7ff fe54 	bl	8000dd4 <LL_TIM_EnableCounter>
  LL_TIM_CC_EnableChannel(TIM2, LL_TIM_CHANNEL_CH1);
 800112c:	2101      	movs	r1, #1
 800112e:	f04f 4080 	mov.w	r0, #1073741824	; 0x40000000
 8001132:	f7ff fe6f 	bl	8000e14 <LL_TIM_CC_EnableChannel>
  //LL_TIM_EnableIT_CC1(TIM2);
  LL_TIM_EnableIT_UPDATE(TIM2);
 8001136:	f04f 4080 	mov.w	r0, #1073741824	; 0x40000000
 800113a:	f7ff ff57 	bl	8000fec <LL_TIM_EnableIT_UPDATE>
  /* USER CODE END TIM2_Init 2 */
  LL_AHB1_GRP1_EnableClock(LL_AHB1_GRP1_PERIPH_GPIOA);
 800113e:	f44f 3000 	mov.w	r0, #131072	; 0x20000
 8001142:	f7ff fe17 	bl	8000d74 <LL_AHB1_GRP1_EnableClock>
    /**TIM2 GPIO Configuration
    PA5     ------> TIM2_CH1
    */
  GPIO_InitStruct.Pin = LL_GPIO_PIN_5;
 8001146:	2320      	movs	r3, #32
 8001148:	607b      	str	r3, [r7, #4]
  GPIO_InitStruct.Mode = LL_GPIO_MODE_ALTERNATE;
 800114a:	2302      	movs	r3, #2
 800114c:	60bb      	str	r3, [r7, #8]
  GPIO_InitStruct.Speed = LL_GPIO_SPEED_FREQ_LOW;
 800114e:	2300      	movs	r3, #0
 8001150:	60fb      	str	r3, [r7, #12]
  GPIO_InitStruct.OutputType = LL_GPIO_OUTPUT_PUSHPULL;
 8001152:	2300      	movs	r3, #0
 8001154:	613b      	str	r3, [r7, #16]
  GPIO_InitStruct.Pull = LL_GPIO_PULL_NO;
 8001156:	2300      	movs	r3, #0
 8001158:	617b      	str	r3, [r7, #20]
  GPIO_InitStruct.Alternate = LL_GPIO_AF_1;
 800115a:	2301      	movs	r3, #1
 800115c:	61bb      	str	r3, [r7, #24]
  LL_GPIO_Init(GPIOA, &GPIO_InitStruct);
 800115e:	1d3b      	adds	r3, r7, #4
 8001160:	4619      	mov	r1, r3
 8001162:	f04f 4090 	mov.w	r0, #1207959552	; 0x48000000
 8001166:	f000 fdf7 	bl	8001d58 <LL_GPIO_Init>

}
 800116a:	bf00      	nop
 800116c:	3750      	adds	r7, #80	; 0x50
 800116e:	46bd      	mov	sp, r7
 8001170:	bd80      	pop	{r7, pc}
	...

08001174 <__NVIC_GetPriorityGrouping>:
{
 8001174:	b480      	push	{r7}
 8001176:	af00      	add	r7, sp, #0
  return ((uint32_t)((SCB->AIRCR & SCB_AIRCR_PRIGROUP_Msk) >> SCB_AIRCR_PRIGROUP_Pos));
 8001178:	4b04      	ldr	r3, [pc, #16]	; (800118c <__NVIC_GetPriorityGrouping+0x18>)
 800117a:	68db      	ldr	r3, [r3, #12]
 800117c:	0a1b      	lsrs	r3, r3, #8
 800117e:	f003 0307 	and.w	r3, r3, #7
}
 8001182:	4618      	mov	r0, r3
 8001184:	46bd      	mov	sp, r7
 8001186:	f85d 7b04 	ldr.w	r7, [sp], #4
 800118a:	4770      	bx	lr
 800118c:	e000ed00 	.word	0xe000ed00

08001190 <__NVIC_EnableIRQ>:
{
 8001190:	b480      	push	{r7}
 8001192:	b083      	sub	sp, #12
 8001194:	af00      	add	r7, sp, #0
 8001196:	4603      	mov	r3, r0
 8001198:	71fb      	strb	r3, [r7, #7]
  if ((int32_t)(IRQn) >= 0)
 800119a:	f997 3007 	ldrsb.w	r3, [r7, #7]
 800119e:	2b00      	cmp	r3, #0
 80011a0:	db0b      	blt.n	80011ba <__NVIC_EnableIRQ+0x2a>
    NVIC->ISER[(((uint32_t)IRQn) >> 5UL)] = (uint32_t)(1UL << (((uint32_t)IRQn) & 0x1FUL));
 80011a2:	79fb      	ldrb	r3, [r7, #7]
 80011a4:	f003 021f 	and.w	r2, r3, #31
 80011a8:	4907      	ldr	r1, [pc, #28]	; (80011c8 <__NVIC_EnableIRQ+0x38>)
 80011aa:	f997 3007 	ldrsb.w	r3, [r7, #7]
 80011ae:	095b      	lsrs	r3, r3, #5
 80011b0:	2001      	movs	r0, #1
 80011b2:	fa00 f202 	lsl.w	r2, r0, r2
 80011b6:	f841 2023 	str.w	r2, [r1, r3, lsl #2]
}
 80011ba:	bf00      	nop
 80011bc:	370c      	adds	r7, #12
 80011be:	46bd      	mov	sp, r7
 80011c0:	f85d 7b04 	ldr.w	r7, [sp], #4
 80011c4:	4770      	bx	lr
 80011c6:	bf00      	nop
 80011c8:	e000e100 	.word	0xe000e100

080011cc <__NVIC_SetPriority>:
{
 80011cc:	b480      	push	{r7}
 80011ce:	b083      	sub	sp, #12
 80011d0:	af00      	add	r7, sp, #0
 80011d2:	4603      	mov	r3, r0
 80011d4:	6039      	str	r1, [r7, #0]
 80011d6:	71fb      	strb	r3, [r7, #7]
  if ((int32_t)(IRQn) >= 0)
 80011d8:	f997 3007 	ldrsb.w	r3, [r7, #7]
 80011dc:	2b00      	cmp	r3, #0
 80011de:	db0a      	blt.n	80011f6 <__NVIC_SetPriority+0x2a>
    NVIC->IP[((uint32_t)IRQn)]               = (uint8_t)((priority << (8U - __NVIC_PRIO_BITS)) & (uint32_t)0xFFUL);
 80011e0:	683b      	ldr	r3, [r7, #0]
 80011e2:	b2da      	uxtb	r2, r3
 80011e4:	490c      	ldr	r1, [pc, #48]	; (8001218 <__NVIC_SetPriority+0x4c>)
 80011e6:	f997 3007 	ldrsb.w	r3, [r7, #7]
 80011ea:	0112      	lsls	r2, r2, #4
 80011ec:	b2d2      	uxtb	r2, r2
 80011ee:	440b      	add	r3, r1
 80011f0:	f883 2300 	strb.w	r2, [r3, #768]	; 0x300
}
 80011f4:	e00a      	b.n	800120c <__NVIC_SetPriority+0x40>
    SCB->SHP[(((uint32_t)IRQn) & 0xFUL)-4UL] = (uint8_t)((priority << (8U - __NVIC_PRIO_BITS)) & (uint32_t)0xFFUL);
 80011f6:	683b      	ldr	r3, [r7, #0]
 80011f8:	b2da      	uxtb	r2, r3
 80011fa:	4908      	ldr	r1, [pc, #32]	; (800121c <__NVIC_SetPriority+0x50>)
 80011fc:	79fb      	ldrb	r3, [r7, #7]
 80011fe:	f003 030f 	and.w	r3, r3, #15
 8001202:	3b04      	subs	r3, #4
 8001204:	0112      	lsls	r2, r2, #4
 8001206:	b2d2      	uxtb	r2, r2
 8001208:	440b      	add	r3, r1
 800120a:	761a      	strb	r2, [r3, #24]
}
 800120c:	bf00      	nop
 800120e:	370c      	adds	r7, #12
 8001210:	46bd      	mov	sp, r7
 8001212:	f85d 7b04 	ldr.w	r7, [sp], #4
 8001216:	4770      	bx	lr
 8001218:	e000e100 	.word	0xe000e100
 800121c:	e000ed00 	.word	0xe000ed00

08001220 <NVIC_EncodePriority>:
{
 8001220:	b480      	push	{r7}
 8001222:	b089      	sub	sp, #36	; 0x24
 8001224:	af00      	add	r7, sp, #0
 8001226:	60f8      	str	r0, [r7, #12]
 8001228:	60b9      	str	r1, [r7, #8]
 800122a:	607a      	str	r2, [r7, #4]
  uint32_t PriorityGroupTmp = (PriorityGroup & (uint32_t)0x07UL);   /* only values 0..7 are used          */
 800122c:	68fb      	ldr	r3, [r7, #12]
 800122e:	f003 0307 	and.w	r3, r3, #7
 8001232:	61fb      	str	r3, [r7, #28]
  PreemptPriorityBits = ((7UL - PriorityGroupTmp) > (uint32_t)(__NVIC_PRIO_BITS)) ? (uint32_t)(__NVIC_PRIO_BITS) : (uint32_t)(7UL - PriorityGroupTmp);
 8001234:	69fb      	ldr	r3, [r7, #28]
 8001236:	f1c3 0307 	rsb	r3, r3, #7
 800123a:	2b04      	cmp	r3, #4
 800123c:	bf28      	it	cs
 800123e:	2304      	movcs	r3, #4
 8001240:	61bb      	str	r3, [r7, #24]
  SubPriorityBits     = ((PriorityGroupTmp + (uint32_t)(__NVIC_PRIO_BITS)) < (uint32_t)7UL) ? (uint32_t)0UL : (uint32_t)((PriorityGroupTmp - 7UL) + (uint32_t)(__NVIC_PRIO_BITS));
 8001242:	69fb      	ldr	r3, [r7, #28]
 8001244:	3304      	adds	r3, #4
 8001246:	2b06      	cmp	r3, #6
 8001248:	d902      	bls.n	8001250 <NVIC_EncodePriority+0x30>
 800124a:	69fb      	ldr	r3, [r7, #28]
 800124c:	3b03      	subs	r3, #3
 800124e:	e000      	b.n	8001252 <NVIC_EncodePriority+0x32>
 8001250:	2300      	movs	r3, #0
 8001252:	617b      	str	r3, [r7, #20]
           ((PreemptPriority & (uint32_t)((1UL << (PreemptPriorityBits)) - 1UL)) << SubPriorityBits) |
 8001254:	f04f 32ff 	mov.w	r2, #4294967295
 8001258:	69bb      	ldr	r3, [r7, #24]
 800125a:	fa02 f303 	lsl.w	r3, r2, r3
 800125e:	43da      	mvns	r2, r3
 8001260:	68bb      	ldr	r3, [r7, #8]
 8001262:	401a      	ands	r2, r3
 8001264:	697b      	ldr	r3, [r7, #20]
 8001266:	409a      	lsls	r2, r3
           ((SubPriority     & (uint32_t)((1UL << (SubPriorityBits    )) - 1UL)))
 8001268:	f04f 31ff 	mov.w	r1, #4294967295
 800126c:	697b      	ldr	r3, [r7, #20]
 800126e:	fa01 f303 	lsl.w	r3, r1, r3
 8001272:	43d9      	mvns	r1, r3
 8001274:	687b      	ldr	r3, [r7, #4]
 8001276:	400b      	ands	r3, r1
           ((PreemptPriority & (uint32_t)((1UL << (PreemptPriorityBits)) - 1UL)) << SubPriorityBits) |
 8001278:	4313      	orrs	r3, r2
}
 800127a:	4618      	mov	r0, r3
 800127c:	3724      	adds	r7, #36	; 0x24
 800127e:	46bd      	mov	sp, r7
 8001280:	f85d 7b04 	ldr.w	r7, [sp], #4
 8001284:	4770      	bx	lr
	...

08001288 <LL_DMA_EnableChannel>:
{
 8001288:	b480      	push	{r7}
 800128a:	b083      	sub	sp, #12
 800128c:	af00      	add	r7, sp, #0
 800128e:	6078      	str	r0, [r7, #4]
 8001290:	6039      	str	r1, [r7, #0]
  SET_BIT(((DMA_Channel_TypeDef *)((uint32_t)((uint32_t)DMAx + CHANNEL_OFFSET_TAB[Channel - 1U])))->CCR, DMA_CCR_EN);
 8001292:	683b      	ldr	r3, [r7, #0]
 8001294:	3b01      	subs	r3, #1
 8001296:	4a0b      	ldr	r2, [pc, #44]	; (80012c4 <LL_DMA_EnableChannel+0x3c>)
 8001298:	5cd3      	ldrb	r3, [r2, r3]
 800129a:	461a      	mov	r2, r3
 800129c:	687b      	ldr	r3, [r7, #4]
 800129e:	4413      	add	r3, r2
 80012a0:	681b      	ldr	r3, [r3, #0]
 80012a2:	683a      	ldr	r2, [r7, #0]
 80012a4:	3a01      	subs	r2, #1
 80012a6:	4907      	ldr	r1, [pc, #28]	; (80012c4 <LL_DMA_EnableChannel+0x3c>)
 80012a8:	5c8a      	ldrb	r2, [r1, r2]
 80012aa:	4611      	mov	r1, r2
 80012ac:	687a      	ldr	r2, [r7, #4]
 80012ae:	440a      	add	r2, r1
 80012b0:	f043 0301 	orr.w	r3, r3, #1
 80012b4:	6013      	str	r3, [r2, #0]
}
 80012b6:	bf00      	nop
 80012b8:	370c      	adds	r7, #12
 80012ba:	46bd      	mov	sp, r7
 80012bc:	f85d 7b04 	ldr.w	r7, [sp], #4
 80012c0:	4770      	bx	lr
 80012c2:	bf00      	nop
 80012c4:	08002dc8 	.word	0x08002dc8

080012c8 <LL_DMA_DisableChannel>:
{
 80012c8:	b480      	push	{r7}
 80012ca:	b083      	sub	sp, #12
 80012cc:	af00      	add	r7, sp, #0
 80012ce:	6078      	str	r0, [r7, #4]
 80012d0:	6039      	str	r1, [r7, #0]
  CLEAR_BIT(((DMA_Channel_TypeDef *)((uint32_t)((uint32_t)DMAx + CHANNEL_OFFSET_TAB[Channel - 1U])))->CCR, DMA_CCR_EN);
 80012d2:	683b      	ldr	r3, [r7, #0]
 80012d4:	3b01      	subs	r3, #1
 80012d6:	4a0b      	ldr	r2, [pc, #44]	; (8001304 <LL_DMA_DisableChannel+0x3c>)
 80012d8:	5cd3      	ldrb	r3, [r2, r3]
 80012da:	461a      	mov	r2, r3
 80012dc:	687b      	ldr	r3, [r7, #4]
 80012de:	4413      	add	r3, r2
 80012e0:	681b      	ldr	r3, [r3, #0]
 80012e2:	683a      	ldr	r2, [r7, #0]
 80012e4:	3a01      	subs	r2, #1
 80012e6:	4907      	ldr	r1, [pc, #28]	; (8001304 <LL_DMA_DisableChannel+0x3c>)
 80012e8:	5c8a      	ldrb	r2, [r1, r2]
 80012ea:	4611      	mov	r1, r2
 80012ec:	687a      	ldr	r2, [r7, #4]
 80012ee:	440a      	add	r2, r1
 80012f0:	f023 0301 	bic.w	r3, r3, #1
 80012f4:	6013      	str	r3, [r2, #0]
}
 80012f6:	bf00      	nop
 80012f8:	370c      	adds	r7, #12
 80012fa:	46bd      	mov	sp, r7
 80012fc:	f85d 7b04 	ldr.w	r7, [sp], #4
 8001300:	4770      	bx	lr
 8001302:	bf00      	nop
 8001304:	08002dc8 	.word	0x08002dc8

08001308 <LL_DMA_SetDataTransferDirection>:
{
 8001308:	b480      	push	{r7}
 800130a:	b085      	sub	sp, #20
 800130c:	af00      	add	r7, sp, #0
 800130e:	60f8      	str	r0, [r7, #12]
 8001310:	60b9      	str	r1, [r7, #8]
 8001312:	607a      	str	r2, [r7, #4]
  MODIFY_REG(((DMA_Channel_TypeDef *)((uint32_t)((uint32_t)DMAx + CHANNEL_OFFSET_TAB[Channel - 1U])))->CCR,
 8001314:	68bb      	ldr	r3, [r7, #8]
 8001316:	3b01      	subs	r3, #1
 8001318:	4a0d      	ldr	r2, [pc, #52]	; (8001350 <LL_DMA_SetDataTransferDirection+0x48>)
 800131a:	5cd3      	ldrb	r3, [r2, r3]
 800131c:	461a      	mov	r2, r3
 800131e:	68fb      	ldr	r3, [r7, #12]
 8001320:	4413      	add	r3, r2
 8001322:	681b      	ldr	r3, [r3, #0]
 8001324:	f423 4380 	bic.w	r3, r3, #16384	; 0x4000
 8001328:	f023 0310 	bic.w	r3, r3, #16
 800132c:	68ba      	ldr	r2, [r7, #8]
 800132e:	3a01      	subs	r2, #1
 8001330:	4907      	ldr	r1, [pc, #28]	; (8001350 <LL_DMA_SetDataTransferDirection+0x48>)
 8001332:	5c8a      	ldrb	r2, [r1, r2]
 8001334:	4611      	mov	r1, r2
 8001336:	68fa      	ldr	r2, [r7, #12]
 8001338:	440a      	add	r2, r1
 800133a:	4611      	mov	r1, r2
 800133c:	687a      	ldr	r2, [r7, #4]
 800133e:	4313      	orrs	r3, r2
 8001340:	600b      	str	r3, [r1, #0]
}
 8001342:	bf00      	nop
 8001344:	3714      	adds	r7, #20
 8001346:	46bd      	mov	sp, r7
 8001348:	f85d 7b04 	ldr.w	r7, [sp], #4
 800134c:	4770      	bx	lr
 800134e:	bf00      	nop
 8001350:	08002dc8 	.word	0x08002dc8

08001354 <LL_DMA_GetDataTransferDirection>:
{
 8001354:	b480      	push	{r7}
 8001356:	b083      	sub	sp, #12
 8001358:	af00      	add	r7, sp, #0
 800135a:	6078      	str	r0, [r7, #4]
 800135c:	6039      	str	r1, [r7, #0]
  return (READ_BIT(((DMA_Channel_TypeDef *)((uint32_t)((uint32_t)DMAx + CHANNEL_OFFSET_TAB[Channel - 1U])))->CCR,
 800135e:	683b      	ldr	r3, [r7, #0]
 8001360:	3b01      	subs	r3, #1
 8001362:	4a07      	ldr	r2, [pc, #28]	; (8001380 <LL_DMA_GetDataTransferDirection+0x2c>)
 8001364:	5cd3      	ldrb	r3, [r2, r3]
 8001366:	461a      	mov	r2, r3
 8001368:	687b      	ldr	r3, [r7, #4]
 800136a:	4413      	add	r3, r2
 800136c:	681a      	ldr	r2, [r3, #0]
 800136e:	f244 0310 	movw	r3, #16400	; 0x4010
 8001372:	4013      	ands	r3, r2
}
 8001374:	4618      	mov	r0, r3
 8001376:	370c      	adds	r7, #12
 8001378:	46bd      	mov	sp, r7
 800137a:	f85d 7b04 	ldr.w	r7, [sp], #4
 800137e:	4770      	bx	lr
 8001380:	08002dc8 	.word	0x08002dc8

08001384 <LL_DMA_SetMode>:
{
 8001384:	b480      	push	{r7}
 8001386:	b085      	sub	sp, #20
 8001388:	af00      	add	r7, sp, #0
 800138a:	60f8      	str	r0, [r7, #12]
 800138c:	60b9      	str	r1, [r7, #8]
 800138e:	607a      	str	r2, [r7, #4]
  MODIFY_REG(((DMA_Channel_TypeDef *)((uint32_t)((uint32_t)DMAx + CHANNEL_OFFSET_TAB[Channel - 1U])))->CCR, DMA_CCR_CIRC,
 8001390:	68bb      	ldr	r3, [r7, #8]
 8001392:	3b01      	subs	r3, #1
 8001394:	4a0c      	ldr	r2, [pc, #48]	; (80013c8 <LL_DMA_SetMode+0x44>)
 8001396:	5cd3      	ldrb	r3, [r2, r3]
 8001398:	461a      	mov	r2, r3
 800139a:	68fb      	ldr	r3, [r7, #12]
 800139c:	4413      	add	r3, r2
 800139e:	681b      	ldr	r3, [r3, #0]
 80013a0:	f023 0220 	bic.w	r2, r3, #32
 80013a4:	68bb      	ldr	r3, [r7, #8]
 80013a6:	3b01      	subs	r3, #1
 80013a8:	4907      	ldr	r1, [pc, #28]	; (80013c8 <LL_DMA_SetMode+0x44>)
 80013aa:	5ccb      	ldrb	r3, [r1, r3]
 80013ac:	4619      	mov	r1, r3
 80013ae:	68fb      	ldr	r3, [r7, #12]
 80013b0:	440b      	add	r3, r1
 80013b2:	4619      	mov	r1, r3
 80013b4:	687b      	ldr	r3, [r7, #4]
 80013b6:	4313      	orrs	r3, r2
 80013b8:	600b      	str	r3, [r1, #0]
}
 80013ba:	bf00      	nop
 80013bc:	3714      	adds	r7, #20
 80013be:	46bd      	mov	sp, r7
 80013c0:	f85d 7b04 	ldr.w	r7, [sp], #4
 80013c4:	4770      	bx	lr
 80013c6:	bf00      	nop
 80013c8:	08002dc8 	.word	0x08002dc8

080013cc <LL_DMA_SetPeriphIncMode>:
{
 80013cc:	b480      	push	{r7}
 80013ce:	b085      	sub	sp, #20
 80013d0:	af00      	add	r7, sp, #0
 80013d2:	60f8      	str	r0, [r7, #12]
 80013d4:	60b9      	str	r1, [r7, #8]
 80013d6:	607a      	str	r2, [r7, #4]
  MODIFY_REG(((DMA_Channel_TypeDef *)((uint32_t)((uint32_t)DMAx + CHANNEL_OFFSET_TAB[Channel - 1U])))->CCR, DMA_CCR_PINC,
 80013d8:	68bb      	ldr	r3, [r7, #8]
 80013da:	3b01      	subs	r3, #1
 80013dc:	4a0c      	ldr	r2, [pc, #48]	; (8001410 <LL_DMA_SetPeriphIncMode+0x44>)
 80013de:	5cd3      	ldrb	r3, [r2, r3]
 80013e0:	461a      	mov	r2, r3
 80013e2:	68fb      	ldr	r3, [r7, #12]
 80013e4:	4413      	add	r3, r2
 80013e6:	681b      	ldr	r3, [r3, #0]
 80013e8:	f023 0240 	bic.w	r2, r3, #64	; 0x40
 80013ec:	68bb      	ldr	r3, [r7, #8]
 80013ee:	3b01      	subs	r3, #1
 80013f0:	4907      	ldr	r1, [pc, #28]	; (8001410 <LL_DMA_SetPeriphIncMode+0x44>)
 80013f2:	5ccb      	ldrb	r3, [r1, r3]
 80013f4:	4619      	mov	r1, r3
 80013f6:	68fb      	ldr	r3, [r7, #12]
 80013f8:	440b      	add	r3, r1
 80013fa:	4619      	mov	r1, r3
 80013fc:	687b      	ldr	r3, [r7, #4]
 80013fe:	4313      	orrs	r3, r2
 8001400:	600b      	str	r3, [r1, #0]
}
 8001402:	bf00      	nop
 8001404:	3714      	adds	r7, #20
 8001406:	46bd      	mov	sp, r7
 8001408:	f85d 7b04 	ldr.w	r7, [sp], #4
 800140c:	4770      	bx	lr
 800140e:	bf00      	nop
 8001410:	08002dc8 	.word	0x08002dc8

08001414 <LL_DMA_SetMemoryIncMode>:
{
 8001414:	b480      	push	{r7}
 8001416:	b085      	sub	sp, #20
 8001418:	af00      	add	r7, sp, #0
 800141a:	60f8      	str	r0, [r7, #12]
 800141c:	60b9      	str	r1, [r7, #8]
 800141e:	607a      	str	r2, [r7, #4]
  MODIFY_REG(((DMA_Channel_TypeDef *)((uint32_t)((uint32_t)DMAx + CHANNEL_OFFSET_TAB[Channel - 1U])))->CCR, DMA_CCR_MINC,
 8001420:	68bb      	ldr	r3, [r7, #8]
 8001422:	3b01      	subs	r3, #1
 8001424:	4a0c      	ldr	r2, [pc, #48]	; (8001458 <LL_DMA_SetMemoryIncMode+0x44>)
 8001426:	5cd3      	ldrb	r3, [r2, r3]
 8001428:	461a      	mov	r2, r3
 800142a:	68fb      	ldr	r3, [r7, #12]
 800142c:	4413      	add	r3, r2
 800142e:	681b      	ldr	r3, [r3, #0]
 8001430:	f023 0280 	bic.w	r2, r3, #128	; 0x80
 8001434:	68bb      	ldr	r3, [r7, #8]
 8001436:	3b01      	subs	r3, #1
 8001438:	4907      	ldr	r1, [pc, #28]	; (8001458 <LL_DMA_SetMemoryIncMode+0x44>)
 800143a:	5ccb      	ldrb	r3, [r1, r3]
 800143c:	4619      	mov	r1, r3
 800143e:	68fb      	ldr	r3, [r7, #12]
 8001440:	440b      	add	r3, r1
 8001442:	4619      	mov	r1, r3
 8001444:	687b      	ldr	r3, [r7, #4]
 8001446:	4313      	orrs	r3, r2
 8001448:	600b      	str	r3, [r1, #0]
}
 800144a:	bf00      	nop
 800144c:	3714      	adds	r7, #20
 800144e:	46bd      	mov	sp, r7
 8001450:	f85d 7b04 	ldr.w	r7, [sp], #4
 8001454:	4770      	bx	lr
 8001456:	bf00      	nop
 8001458:	08002dc8 	.word	0x08002dc8

0800145c <LL_DMA_SetPeriphSize>:
{
 800145c:	b480      	push	{r7}
 800145e:	b085      	sub	sp, #20
 8001460:	af00      	add	r7, sp, #0
 8001462:	60f8      	str	r0, [r7, #12]
 8001464:	60b9      	str	r1, [r7, #8]
 8001466:	607a      	str	r2, [r7, #4]
  MODIFY_REG(((DMA_Channel_TypeDef *)((uint32_t)((uint32_t)DMAx + CHANNEL_OFFSET_TAB[Channel - 1U])))->CCR, DMA_CCR_PSIZE,
 8001468:	68bb      	ldr	r3, [r7, #8]
 800146a:	3b01      	subs	r3, #1
 800146c:	4a0c      	ldr	r2, [pc, #48]	; (80014a0 <LL_DMA_SetPeriphSize+0x44>)
 800146e:	5cd3      	ldrb	r3, [r2, r3]
 8001470:	461a      	mov	r2, r3
 8001472:	68fb      	ldr	r3, [r7, #12]
 8001474:	4413      	add	r3, r2
 8001476:	681b      	ldr	r3, [r3, #0]
 8001478:	f423 7240 	bic.w	r2, r3, #768	; 0x300
 800147c:	68bb      	ldr	r3, [r7, #8]
 800147e:	3b01      	subs	r3, #1
 8001480:	4907      	ldr	r1, [pc, #28]	; (80014a0 <LL_DMA_SetPeriphSize+0x44>)
 8001482:	5ccb      	ldrb	r3, [r1, r3]
 8001484:	4619      	mov	r1, r3
 8001486:	68fb      	ldr	r3, [r7, #12]
 8001488:	440b      	add	r3, r1
 800148a:	4619      	mov	r1, r3
 800148c:	687b      	ldr	r3, [r7, #4]
 800148e:	4313      	orrs	r3, r2
 8001490:	600b      	str	r3, [r1, #0]
}
 8001492:	bf00      	nop
 8001494:	3714      	adds	r7, #20
 8001496:	46bd      	mov	sp, r7
 8001498:	f85d 7b04 	ldr.w	r7, [sp], #4
 800149c:	4770      	bx	lr
 800149e:	bf00      	nop
 80014a0:	08002dc8 	.word	0x08002dc8

080014a4 <LL_DMA_SetMemorySize>:
{
 80014a4:	b480      	push	{r7}
 80014a6:	b085      	sub	sp, #20
 80014a8:	af00      	add	r7, sp, #0
 80014aa:	60f8      	str	r0, [r7, #12]
 80014ac:	60b9      	str	r1, [r7, #8]
 80014ae:	607a      	str	r2, [r7, #4]
  MODIFY_REG(((DMA_Channel_TypeDef *)((uint32_t)((uint32_t)DMAx + CHANNEL_OFFSET_TAB[Channel - 1U])))->CCR, DMA_CCR_MSIZE,
 80014b0:	68bb      	ldr	r3, [r7, #8]
 80014b2:	3b01      	subs	r3, #1
 80014b4:	4a0c      	ldr	r2, [pc, #48]	; (80014e8 <LL_DMA_SetMemorySize+0x44>)
 80014b6:	5cd3      	ldrb	r3, [r2, r3]
 80014b8:	461a      	mov	r2, r3
 80014ba:	68fb      	ldr	r3, [r7, #12]
 80014bc:	4413      	add	r3, r2
 80014be:	681b      	ldr	r3, [r3, #0]
 80014c0:	f423 6240 	bic.w	r2, r3, #3072	; 0xc00
 80014c4:	68bb      	ldr	r3, [r7, #8]
 80014c6:	3b01      	subs	r3, #1
 80014c8:	4907      	ldr	r1, [pc, #28]	; (80014e8 <LL_DMA_SetMemorySize+0x44>)
 80014ca:	5ccb      	ldrb	r3, [r1, r3]
 80014cc:	4619      	mov	r1, r3
 80014ce:	68fb      	ldr	r3, [r7, #12]
 80014d0:	440b      	add	r3, r1
 80014d2:	4619      	mov	r1, r3
 80014d4:	687b      	ldr	r3, [r7, #4]
 80014d6:	4313      	orrs	r3, r2
 80014d8:	600b      	str	r3, [r1, #0]
}
 80014da:	bf00      	nop
 80014dc:	3714      	adds	r7, #20
 80014de:	46bd      	mov	sp, r7
 80014e0:	f85d 7b04 	ldr.w	r7, [sp], #4
 80014e4:	4770      	bx	lr
 80014e6:	bf00      	nop
 80014e8:	08002dc8 	.word	0x08002dc8

080014ec <LL_DMA_SetChannelPriorityLevel>:
{
 80014ec:	b480      	push	{r7}
 80014ee:	b085      	sub	sp, #20
 80014f0:	af00      	add	r7, sp, #0
 80014f2:	60f8      	str	r0, [r7, #12]
 80014f4:	60b9      	str	r1, [r7, #8]
 80014f6:	607a      	str	r2, [r7, #4]
  MODIFY_REG(((DMA_Channel_TypeDef *)((uint32_t)((uint32_t)DMAx + CHANNEL_OFFSET_TAB[Channel - 1U])))->CCR, DMA_CCR_PL,
 80014f8:	68bb      	ldr	r3, [r7, #8]
 80014fa:	3b01      	subs	r3, #1
 80014fc:	4a0c      	ldr	r2, [pc, #48]	; (8001530 <LL_DMA_SetChannelPriorityLevel+0x44>)
 80014fe:	5cd3      	ldrb	r3, [r2, r3]
 8001500:	461a      	mov	r2, r3
 8001502:	68fb      	ldr	r3, [r7, #12]
 8001504:	4413      	add	r3, r2
 8001506:	681b      	ldr	r3, [r3, #0]
 8001508:	f423 5240 	bic.w	r2, r3, #12288	; 0x3000
 800150c:	68bb      	ldr	r3, [r7, #8]
 800150e:	3b01      	subs	r3, #1
 8001510:	4907      	ldr	r1, [pc, #28]	; (8001530 <LL_DMA_SetChannelPriorityLevel+0x44>)
 8001512:	5ccb      	ldrb	r3, [r1, r3]
 8001514:	4619      	mov	r1, r3
 8001516:	68fb      	ldr	r3, [r7, #12]
 8001518:	440b      	add	r3, r1
 800151a:	4619      	mov	r1, r3
 800151c:	687b      	ldr	r3, [r7, #4]
 800151e:	4313      	orrs	r3, r2
 8001520:	600b      	str	r3, [r1, #0]
}
 8001522:	bf00      	nop
 8001524:	3714      	adds	r7, #20
 8001526:	46bd      	mov	sp, r7
 8001528:	f85d 7b04 	ldr.w	r7, [sp], #4
 800152c:	4770      	bx	lr
 800152e:	bf00      	nop
 8001530:	08002dc8 	.word	0x08002dc8

08001534 <LL_DMA_SetDataLength>:
{
 8001534:	b480      	push	{r7}
 8001536:	b085      	sub	sp, #20
 8001538:	af00      	add	r7, sp, #0
 800153a:	60f8      	str	r0, [r7, #12]
 800153c:	60b9      	str	r1, [r7, #8]
 800153e:	607a      	str	r2, [r7, #4]
  MODIFY_REG(((DMA_Channel_TypeDef *)((uint32_t)((uint32_t)DMAx + CHANNEL_OFFSET_TAB[Channel - 1U])))->CNDTR,
 8001540:	68bb      	ldr	r3, [r7, #8]
 8001542:	3b01      	subs	r3, #1
 8001544:	4a0c      	ldr	r2, [pc, #48]	; (8001578 <LL_DMA_SetDataLength+0x44>)
 8001546:	5cd3      	ldrb	r3, [r2, r3]
 8001548:	461a      	mov	r2, r3
 800154a:	68fb      	ldr	r3, [r7, #12]
 800154c:	4413      	add	r3, r2
 800154e:	685b      	ldr	r3, [r3, #4]
 8001550:	0c1b      	lsrs	r3, r3, #16
 8001552:	041b      	lsls	r3, r3, #16
 8001554:	68ba      	ldr	r2, [r7, #8]
 8001556:	3a01      	subs	r2, #1
 8001558:	4907      	ldr	r1, [pc, #28]	; (8001578 <LL_DMA_SetDataLength+0x44>)
 800155a:	5c8a      	ldrb	r2, [r1, r2]
 800155c:	4611      	mov	r1, r2
 800155e:	68fa      	ldr	r2, [r7, #12]
 8001560:	440a      	add	r2, r1
 8001562:	4611      	mov	r1, r2
 8001564:	687a      	ldr	r2, [r7, #4]
 8001566:	4313      	orrs	r3, r2
 8001568:	604b      	str	r3, [r1, #4]
}
 800156a:	bf00      	nop
 800156c:	3714      	adds	r7, #20
 800156e:	46bd      	mov	sp, r7
 8001570:	f85d 7b04 	ldr.w	r7, [sp], #4
 8001574:	4770      	bx	lr
 8001576:	bf00      	nop
 8001578:	08002dc8 	.word	0x08002dc8

0800157c <LL_DMA_GetDataLength>:
{
 800157c:	b480      	push	{r7}
 800157e:	b083      	sub	sp, #12
 8001580:	af00      	add	r7, sp, #0
 8001582:	6078      	str	r0, [r7, #4]
 8001584:	6039      	str	r1, [r7, #0]
  return (READ_BIT(((DMA_Channel_TypeDef *)((uint32_t)((uint32_t)DMAx + CHANNEL_OFFSET_TAB[Channel - 1U])))->CNDTR,
 8001586:	683b      	ldr	r3, [r7, #0]
 8001588:	3b01      	subs	r3, #1
 800158a:	4a06      	ldr	r2, [pc, #24]	; (80015a4 <LL_DMA_GetDataLength+0x28>)
 800158c:	5cd3      	ldrb	r3, [r2, r3]
 800158e:	461a      	mov	r2, r3
 8001590:	687b      	ldr	r3, [r7, #4]
 8001592:	4413      	add	r3, r2
 8001594:	685b      	ldr	r3, [r3, #4]
 8001596:	b29b      	uxth	r3, r3
}
 8001598:	4618      	mov	r0, r3
 800159a:	370c      	adds	r7, #12
 800159c:	46bd      	mov	sp, r7
 800159e:	f85d 7b04 	ldr.w	r7, [sp], #4
 80015a2:	4770      	bx	lr
 80015a4:	08002dc8 	.word	0x08002dc8

080015a8 <LL_DMA_ConfigAddresses>:
{
 80015a8:	b480      	push	{r7}
 80015aa:	b085      	sub	sp, #20
 80015ac:	af00      	add	r7, sp, #0
 80015ae:	60f8      	str	r0, [r7, #12]
 80015b0:	60b9      	str	r1, [r7, #8]
 80015b2:	607a      	str	r2, [r7, #4]
 80015b4:	603b      	str	r3, [r7, #0]
  if (Direction == LL_DMA_DIRECTION_MEMORY_TO_PERIPH)
 80015b6:	69bb      	ldr	r3, [r7, #24]
 80015b8:	2b10      	cmp	r3, #16
 80015ba:	d114      	bne.n	80015e6 <LL_DMA_ConfigAddresses+0x3e>
    WRITE_REG(((DMA_Channel_TypeDef *)((uint32_t)((uint32_t)DMAx + CHANNEL_OFFSET_TAB[Channel - 1U])))->CMAR, SrcAddress);
 80015bc:	68bb      	ldr	r3, [r7, #8]
 80015be:	3b01      	subs	r3, #1
 80015c0:	4a16      	ldr	r2, [pc, #88]	; (800161c <LL_DMA_ConfigAddresses+0x74>)
 80015c2:	5cd3      	ldrb	r3, [r2, r3]
 80015c4:	461a      	mov	r2, r3
 80015c6:	68fb      	ldr	r3, [r7, #12]
 80015c8:	4413      	add	r3, r2
 80015ca:	461a      	mov	r2, r3
 80015cc:	687b      	ldr	r3, [r7, #4]
 80015ce:	60d3      	str	r3, [r2, #12]
    WRITE_REG(((DMA_Channel_TypeDef *)((uint32_t)((uint32_t)DMAx + CHANNEL_OFFSET_TAB[Channel - 1U])))->CPAR, DstAddress);
 80015d0:	68bb      	ldr	r3, [r7, #8]
 80015d2:	3b01      	subs	r3, #1
 80015d4:	4a11      	ldr	r2, [pc, #68]	; (800161c <LL_DMA_ConfigAddresses+0x74>)
 80015d6:	5cd3      	ldrb	r3, [r2, r3]
 80015d8:	461a      	mov	r2, r3
 80015da:	68fb      	ldr	r3, [r7, #12]
 80015dc:	4413      	add	r3, r2
 80015de:	461a      	mov	r2, r3
 80015e0:	683b      	ldr	r3, [r7, #0]
 80015e2:	6093      	str	r3, [r2, #8]
}
 80015e4:	e013      	b.n	800160e <LL_DMA_ConfigAddresses+0x66>
    WRITE_REG(((DMA_Channel_TypeDef *)((uint32_t)((uint32_t)DMAx + CHANNEL_OFFSET_TAB[Channel - 1U])))->CPAR, SrcAddress);
 80015e6:	68bb      	ldr	r3, [r7, #8]
 80015e8:	3b01      	subs	r3, #1
 80015ea:	4a0c      	ldr	r2, [pc, #48]	; (800161c <LL_DMA_ConfigAddresses+0x74>)
 80015ec:	5cd3      	ldrb	r3, [r2, r3]
 80015ee:	461a      	mov	r2, r3
 80015f0:	68fb      	ldr	r3, [r7, #12]
 80015f2:	4413      	add	r3, r2
 80015f4:	461a      	mov	r2, r3
 80015f6:	687b      	ldr	r3, [r7, #4]
 80015f8:	6093      	str	r3, [r2, #8]
    WRITE_REG(((DMA_Channel_TypeDef *)((uint32_t)((uint32_t)DMAx + CHANNEL_OFFSET_TAB[Channel - 1U])))->CMAR, DstAddress);
 80015fa:	68bb      	ldr	r3, [r7, #8]
 80015fc:	3b01      	subs	r3, #1
 80015fe:	4a07      	ldr	r2, [pc, #28]	; (800161c <LL_DMA_ConfigAddresses+0x74>)
 8001600:	5cd3      	ldrb	r3, [r2, r3]
 8001602:	461a      	mov	r2, r3
 8001604:	68fb      	ldr	r3, [r7, #12]
 8001606:	4413      	add	r3, r2
 8001608:	461a      	mov	r2, r3
 800160a:	683b      	ldr	r3, [r7, #0]
 800160c:	60d3      	str	r3, [r2, #12]
}
 800160e:	bf00      	nop
 8001610:	3714      	adds	r7, #20
 8001612:	46bd      	mov	sp, r7
 8001614:	f85d 7b04 	ldr.w	r7, [sp], #4
 8001618:	4770      	bx	lr
 800161a:	bf00      	nop
 800161c:	08002dc8 	.word	0x08002dc8

08001620 <LL_DMA_IsActiveFlag_TC6>:
{
 8001620:	b480      	push	{r7}
 8001622:	b083      	sub	sp, #12
 8001624:	af00      	add	r7, sp, #0
 8001626:	6078      	str	r0, [r7, #4]
  return (READ_BIT(DMAx->ISR, DMA_ISR_TCIF6) == (DMA_ISR_TCIF6));
 8001628:	687b      	ldr	r3, [r7, #4]
 800162a:	681b      	ldr	r3, [r3, #0]
 800162c:	f403 1300 	and.w	r3, r3, #2097152	; 0x200000
 8001630:	f5b3 1f00 	cmp.w	r3, #2097152	; 0x200000
 8001634:	bf0c      	ite	eq
 8001636:	2301      	moveq	r3, #1
 8001638:	2300      	movne	r3, #0
 800163a:	b2db      	uxtb	r3, r3
}
 800163c:	4618      	mov	r0, r3
 800163e:	370c      	adds	r7, #12
 8001640:	46bd      	mov	sp, r7
 8001642:	f85d 7b04 	ldr.w	r7, [sp], #4
 8001646:	4770      	bx	lr

08001648 <LL_DMA_IsActiveFlag_HT6>:
{
 8001648:	b480      	push	{r7}
 800164a:	b083      	sub	sp, #12
 800164c:	af00      	add	r7, sp, #0
 800164e:	6078      	str	r0, [r7, #4]
  return (READ_BIT(DMAx->ISR, DMA_ISR_HTIF6) == (DMA_ISR_HTIF6));
 8001650:	687b      	ldr	r3, [r7, #4]
 8001652:	681b      	ldr	r3, [r3, #0]
 8001654:	f403 0380 	and.w	r3, r3, #4194304	; 0x400000
 8001658:	f5b3 0f80 	cmp.w	r3, #4194304	; 0x400000
 800165c:	bf0c      	ite	eq
 800165e:	2301      	moveq	r3, #1
 8001660:	2300      	movne	r3, #0
 8001662:	b2db      	uxtb	r3, r3
}
 8001664:	4618      	mov	r0, r3
 8001666:	370c      	adds	r7, #12
 8001668:	46bd      	mov	sp, r7
 800166a:	f85d 7b04 	ldr.w	r7, [sp], #4
 800166e:	4770      	bx	lr

08001670 <LL_DMA_EnableIT_TC>:
  *         @arg @ref LL_DMA_CHANNEL_6
  *         @arg @ref LL_DMA_CHANNEL_7
  * @retval None
  */
__STATIC_INLINE void LL_DMA_EnableIT_TC(DMA_TypeDef *DMAx, uint32_t Channel)
{
 8001670:	b480      	push	{r7}
 8001672:	b083      	sub	sp, #12
 8001674:	af00      	add	r7, sp, #0
 8001676:	6078      	str	r0, [r7, #4]
 8001678:	6039      	str	r1, [r7, #0]
  SET_BIT(((DMA_Channel_TypeDef *)((uint32_t)((uint32_t)DMAx + CHANNEL_OFFSET_TAB[Channel - 1U])))->CCR, DMA_CCR_TCIE);
 800167a:	683b      	ldr	r3, [r7, #0]
 800167c:	3b01      	subs	r3, #1
 800167e:	4a0b      	ldr	r2, [pc, #44]	; (80016ac <LL_DMA_EnableIT_TC+0x3c>)
 8001680:	5cd3      	ldrb	r3, [r2, r3]
 8001682:	461a      	mov	r2, r3
 8001684:	687b      	ldr	r3, [r7, #4]
 8001686:	4413      	add	r3, r2
 8001688:	681b      	ldr	r3, [r3, #0]
 800168a:	683a      	ldr	r2, [r7, #0]
 800168c:	3a01      	subs	r2, #1
 800168e:	4907      	ldr	r1, [pc, #28]	; (80016ac <LL_DMA_EnableIT_TC+0x3c>)
 8001690:	5c8a      	ldrb	r2, [r1, r2]
 8001692:	4611      	mov	r1, r2
 8001694:	687a      	ldr	r2, [r7, #4]
 8001696:	440a      	add	r2, r1
 8001698:	f043 0302 	orr.w	r3, r3, #2
 800169c:	6013      	str	r3, [r2, #0]
}
 800169e:	bf00      	nop
 80016a0:	370c      	adds	r7, #12
 80016a2:	46bd      	mov	sp, r7
 80016a4:	f85d 7b04 	ldr.w	r7, [sp], #4
 80016a8:	4770      	bx	lr
 80016aa:	bf00      	nop
 80016ac:	08002dc8 	.word	0x08002dc8

080016b0 <LL_DMA_EnableIT_HT>:
  *         @arg @ref LL_DMA_CHANNEL_6
  *         @arg @ref LL_DMA_CHANNEL_7
  * @retval None
  */
__STATIC_INLINE void LL_DMA_EnableIT_HT(DMA_TypeDef *DMAx, uint32_t Channel)
{
 80016b0:	b480      	push	{r7}
 80016b2:	b083      	sub	sp, #12
 80016b4:	af00      	add	r7, sp, #0
 80016b6:	6078      	str	r0, [r7, #4]
 80016b8:	6039      	str	r1, [r7, #0]
  SET_BIT(((DMA_Channel_TypeDef *)((uint32_t)((uint32_t)DMAx + CHANNEL_OFFSET_TAB[Channel - 1U])))->CCR, DMA_CCR_HTIE);
 80016ba:	683b      	ldr	r3, [r7, #0]
 80016bc:	3b01      	subs	r3, #1
 80016be:	4a0b      	ldr	r2, [pc, #44]	; (80016ec <LL_DMA_EnableIT_HT+0x3c>)
 80016c0:	5cd3      	ldrb	r3, [r2, r3]
 80016c2:	461a      	mov	r2, r3
 80016c4:	687b      	ldr	r3, [r7, #4]
 80016c6:	4413      	add	r3, r2
 80016c8:	681b      	ldr	r3, [r3, #0]
 80016ca:	683a      	ldr	r2, [r7, #0]
 80016cc:	3a01      	subs	r2, #1
 80016ce:	4907      	ldr	r1, [pc, #28]	; (80016ec <LL_DMA_EnableIT_HT+0x3c>)
 80016d0:	5c8a      	ldrb	r2, [r1, r2]
 80016d2:	4611      	mov	r1, r2
 80016d4:	687a      	ldr	r2, [r7, #4]
 80016d6:	440a      	add	r2, r1
 80016d8:	f043 0304 	orr.w	r3, r3, #4
 80016dc:	6013      	str	r3, [r2, #0]
}
 80016de:	bf00      	nop
 80016e0:	370c      	adds	r7, #12
 80016e2:	46bd      	mov	sp, r7
 80016e4:	f85d 7b04 	ldr.w	r7, [sp], #4
 80016e8:	4770      	bx	lr
 80016ea:	bf00      	nop
 80016ec:	08002dc8 	.word	0x08002dc8

080016f0 <LL_AHB1_GRP1_EnableClock>:
{
 80016f0:	b480      	push	{r7}
 80016f2:	b085      	sub	sp, #20
 80016f4:	af00      	add	r7, sp, #0
 80016f6:	6078      	str	r0, [r7, #4]
  SET_BIT(RCC->AHBENR, Periphs);
 80016f8:	4b08      	ldr	r3, [pc, #32]	; (800171c <LL_AHB1_GRP1_EnableClock+0x2c>)
 80016fa:	695a      	ldr	r2, [r3, #20]
 80016fc:	4907      	ldr	r1, [pc, #28]	; (800171c <LL_AHB1_GRP1_EnableClock+0x2c>)
 80016fe:	687b      	ldr	r3, [r7, #4]
 8001700:	4313      	orrs	r3, r2
 8001702:	614b      	str	r3, [r1, #20]
  tmpreg = READ_BIT(RCC->AHBENR, Periphs);
 8001704:	4b05      	ldr	r3, [pc, #20]	; (800171c <LL_AHB1_GRP1_EnableClock+0x2c>)
 8001706:	695a      	ldr	r2, [r3, #20]
 8001708:	687b      	ldr	r3, [r7, #4]
 800170a:	4013      	ands	r3, r2
 800170c:	60fb      	str	r3, [r7, #12]
  (void)tmpreg;
 800170e:	68fb      	ldr	r3, [r7, #12]
}
 8001710:	bf00      	nop
 8001712:	3714      	adds	r7, #20
 8001714:	46bd      	mov	sp, r7
 8001716:	f85d 7b04 	ldr.w	r7, [sp], #4
 800171a:	4770      	bx	lr
 800171c:	40021000 	.word	0x40021000

08001720 <LL_APB1_GRP1_EnableClock>:
{
 8001720:	b480      	push	{r7}
 8001722:	b085      	sub	sp, #20
 8001724:	af00      	add	r7, sp, #0
 8001726:	6078      	str	r0, [r7, #4]
  SET_BIT(RCC->APB1ENR, Periphs);
 8001728:	4b08      	ldr	r3, [pc, #32]	; (800174c <LL_APB1_GRP1_EnableClock+0x2c>)
 800172a:	69da      	ldr	r2, [r3, #28]
 800172c:	4907      	ldr	r1, [pc, #28]	; (800174c <LL_APB1_GRP1_EnableClock+0x2c>)
 800172e:	687b      	ldr	r3, [r7, #4]
 8001730:	4313      	orrs	r3, r2
 8001732:	61cb      	str	r3, [r1, #28]
  tmpreg = READ_BIT(RCC->APB1ENR, Periphs);
 8001734:	4b05      	ldr	r3, [pc, #20]	; (800174c <LL_APB1_GRP1_EnableClock+0x2c>)
 8001736:	69da      	ldr	r2, [r3, #28]
 8001738:	687b      	ldr	r3, [r7, #4]
 800173a:	4013      	ands	r3, r2
 800173c:	60fb      	str	r3, [r7, #12]
  (void)tmpreg;
 800173e:	68fb      	ldr	r3, [r7, #12]
}
 8001740:	bf00      	nop
 8001742:	3714      	adds	r7, #20
 8001744:	46bd      	mov	sp, r7
 8001746:	f85d 7b04 	ldr.w	r7, [sp], #4
 800174a:	4770      	bx	lr
 800174c:	40021000 	.word	0x40021000

08001750 <LL_USART_Enable>:
{
 8001750:	b480      	push	{r7}
 8001752:	b083      	sub	sp, #12
 8001754:	af00      	add	r7, sp, #0
 8001756:	6078      	str	r0, [r7, #4]
  SET_BIT(USARTx->CR1, USART_CR1_UE);
 8001758:	687b      	ldr	r3, [r7, #4]
 800175a:	681b      	ldr	r3, [r3, #0]
 800175c:	f043 0201 	orr.w	r2, r3, #1
 8001760:	687b      	ldr	r3, [r7, #4]
 8001762:	601a      	str	r2, [r3, #0]
}
 8001764:	bf00      	nop
 8001766:	370c      	adds	r7, #12
 8001768:	46bd      	mov	sp, r7
 800176a:	f85d 7b04 	ldr.w	r7, [sp], #4
 800176e:	4770      	bx	lr

08001770 <LL_USART_ConfigAsyncMode>:
{
 8001770:	b480      	push	{r7}
 8001772:	b083      	sub	sp, #12
 8001774:	af00      	add	r7, sp, #0
 8001776:	6078      	str	r0, [r7, #4]
  CLEAR_BIT(USARTx->CR2, (USART_CR2_LINEN | USART_CR2_CLKEN));
 8001778:	687b      	ldr	r3, [r7, #4]
 800177a:	685b      	ldr	r3, [r3, #4]
 800177c:	f423 4290 	bic.w	r2, r3, #18432	; 0x4800
 8001780:	687b      	ldr	r3, [r7, #4]
 8001782:	605a      	str	r2, [r3, #4]
  CLEAR_BIT(USARTx->CR3, (USART_CR3_SCEN | USART_CR3_IREN | USART_CR3_HDSEL));
 8001784:	687b      	ldr	r3, [r7, #4]
 8001786:	689b      	ldr	r3, [r3, #8]
 8001788:	f023 022a 	bic.w	r2, r3, #42	; 0x2a
 800178c:	687b      	ldr	r3, [r7, #4]
 800178e:	609a      	str	r2, [r3, #8]
}
 8001790:	bf00      	nop
 8001792:	370c      	adds	r7, #12
 8001794:	46bd      	mov	sp, r7
 8001796:	f85d 7b04 	ldr.w	r7, [sp], #4
 800179a:	4770      	bx	lr

0800179c <LL_USART_EnableIT_IDLE>:
  * @rmtoll CR1          IDLEIE        LL_USART_EnableIT_IDLE
  * @param  USARTx USART Instance
  * @retval None
  */
__STATIC_INLINE void LL_USART_EnableIT_IDLE(USART_TypeDef *USARTx)
{
 800179c:	b480      	push	{r7}
 800179e:	b089      	sub	sp, #36	; 0x24
 80017a0:	af00      	add	r7, sp, #0
 80017a2:	6078      	str	r0, [r7, #4]
  ATOMIC_SET_BIT(USARTx->CR1, USART_CR1_IDLEIE);
 80017a4:	687b      	ldr	r3, [r7, #4]
 80017a6:	60fb      	str	r3, [r7, #12]
 */
__STATIC_FORCEINLINE uint32_t __LDREXW(volatile uint32_t *addr)
{
    uint32_t result;

   __ASM volatile ("ldrex %0, %1" : "=r" (result) : "Q" (*addr) );
 80017a8:	68fb      	ldr	r3, [r7, #12]
 80017aa:	e853 3f00 	ldrex	r3, [r3]
 80017ae:	60bb      	str	r3, [r7, #8]
   return(result);
 80017b0:	68bb      	ldr	r3, [r7, #8]
 80017b2:	f043 0310 	orr.w	r3, r3, #16
 80017b6:	61fb      	str	r3, [r7, #28]
 80017b8:	687b      	ldr	r3, [r7, #4]
 80017ba:	69fa      	ldr	r2, [r7, #28]
 80017bc:	61ba      	str	r2, [r7, #24]
 80017be:	617b      	str	r3, [r7, #20]
 */
__STATIC_FORCEINLINE uint32_t __STREXW(uint32_t value, volatile uint32_t *addr)
{
   uint32_t result;

   __ASM volatile ("strex %0, %2, %1" : "=&r" (result), "=Q" (*addr) : "r" (value) );
 80017c0:	6979      	ldr	r1, [r7, #20]
 80017c2:	69ba      	ldr	r2, [r7, #24]
 80017c4:	e841 2300 	strex	r3, r2, [r1]
 80017c8:	613b      	str	r3, [r7, #16]
   return(result);
 80017ca:	693b      	ldr	r3, [r7, #16]
 80017cc:	2b00      	cmp	r3, #0
 80017ce:	d1e9      	bne.n	80017a4 <LL_USART_EnableIT_IDLE+0x8>
}
 80017d0:	bf00      	nop
 80017d2:	bf00      	nop
 80017d4:	3724      	adds	r7, #36	; 0x24
 80017d6:	46bd      	mov	sp, r7
 80017d8:	f85d 7b04 	ldr.w	r7, [sp], #4
 80017dc:	4770      	bx	lr

080017de <LL_USART_DisableIT_CTS>:
  * @rmtoll CR3          CTSIE         LL_USART_DisableIT_CTS
  * @param  USARTx USART Instance
  * @retval None
  */
__STATIC_INLINE void LL_USART_DisableIT_CTS(USART_TypeDef *USARTx)
{
 80017de:	b480      	push	{r7}
 80017e0:	b089      	sub	sp, #36	; 0x24
 80017e2:	af00      	add	r7, sp, #0
 80017e4:	6078      	str	r0, [r7, #4]
  ATOMIC_CLEAR_BIT(USARTx->CR3, USART_CR3_CTSIE);
 80017e6:	687b      	ldr	r3, [r7, #4]
 80017e8:	3308      	adds	r3, #8
 80017ea:	60fb      	str	r3, [r7, #12]
   __ASM volatile ("ldrex %0, %1" : "=r" (result) : "Q" (*addr) );
 80017ec:	68fb      	ldr	r3, [r7, #12]
 80017ee:	e853 3f00 	ldrex	r3, [r3]
 80017f2:	60bb      	str	r3, [r7, #8]
   return(result);
 80017f4:	68bb      	ldr	r3, [r7, #8]
 80017f6:	f423 6380 	bic.w	r3, r3, #1024	; 0x400
 80017fa:	61fb      	str	r3, [r7, #28]
 80017fc:	687b      	ldr	r3, [r7, #4]
 80017fe:	3308      	adds	r3, #8
 8001800:	69fa      	ldr	r2, [r7, #28]
 8001802:	61ba      	str	r2, [r7, #24]
 8001804:	617b      	str	r3, [r7, #20]
   __ASM volatile ("strex %0, %2, %1" : "=&r" (result), "=Q" (*addr) : "r" (value) );
 8001806:	6979      	ldr	r1, [r7, #20]
 8001808:	69ba      	ldr	r2, [r7, #24]
 800180a:	e841 2300 	strex	r3, r2, [r1]
 800180e:	613b      	str	r3, [r7, #16]
   return(result);
 8001810:	693b      	ldr	r3, [r7, #16]
 8001812:	2b00      	cmp	r3, #0
 8001814:	d1e7      	bne.n	80017e6 <LL_USART_DisableIT_CTS+0x8>
}
 8001816:	bf00      	nop
 8001818:	bf00      	nop
 800181a:	3724      	adds	r7, #36	; 0x24
 800181c:	46bd      	mov	sp, r7
 800181e:	f85d 7b04 	ldr.w	r7, [sp], #4
 8001822:	4770      	bx	lr

08001824 <LL_USART_EnableDMAReq_RX>:
  * @rmtoll CR3          DMAR          LL_USART_EnableDMAReq_RX
  * @param  USARTx USART Instance
  * @retval None
  */
__STATIC_INLINE void LL_USART_EnableDMAReq_RX(USART_TypeDef *USARTx)
{
 8001824:	b480      	push	{r7}
 8001826:	b089      	sub	sp, #36	; 0x24
 8001828:	af00      	add	r7, sp, #0
 800182a:	6078      	str	r0, [r7, #4]
  ATOMIC_SET_BIT(USARTx->CR3, USART_CR3_DMAR);
 800182c:	687b      	ldr	r3, [r7, #4]
 800182e:	3308      	adds	r3, #8
 8001830:	60fb      	str	r3, [r7, #12]
   __ASM volatile ("ldrex %0, %1" : "=r" (result) : "Q" (*addr) );
 8001832:	68fb      	ldr	r3, [r7, #12]
 8001834:	e853 3f00 	ldrex	r3, [r3]
 8001838:	60bb      	str	r3, [r7, #8]
   return(result);
 800183a:	68bb      	ldr	r3, [r7, #8]
 800183c:	f043 0340 	orr.w	r3, r3, #64	; 0x40
 8001840:	61fb      	str	r3, [r7, #28]
 8001842:	687b      	ldr	r3, [r7, #4]
 8001844:	3308      	adds	r3, #8
 8001846:	69fa      	ldr	r2, [r7, #28]
 8001848:	61ba      	str	r2, [r7, #24]
 800184a:	617b      	str	r3, [r7, #20]
   __ASM volatile ("strex %0, %2, %1" : "=&r" (result), "=Q" (*addr) : "r" (value) );
 800184c:	6979      	ldr	r1, [r7, #20]
 800184e:	69ba      	ldr	r2, [r7, #24]
 8001850:	e841 2300 	strex	r3, r2, [r1]
 8001854:	613b      	str	r3, [r7, #16]
   return(result);
 8001856:	693b      	ldr	r3, [r7, #16]
 8001858:	2b00      	cmp	r3, #0
 800185a:	d1e7      	bne.n	800182c <LL_USART_EnableDMAReq_RX+0x8>
}
 800185c:	bf00      	nop
 800185e:	bf00      	nop
 8001860:	3724      	adds	r7, #36	; 0x24
 8001862:	46bd      	mov	sp, r7
 8001864:	f85d 7b04 	ldr.w	r7, [sp], #4
 8001868:	4770      	bx	lr

0800186a <LL_USART_DMA_GetRegAddr>:
  *         @arg @ref LL_USART_DMA_REG_DATA_TRANSMIT
  *         @arg @ref LL_USART_DMA_REG_DATA_RECEIVE
  * @retval Address of data register
  */
__STATIC_INLINE uint32_t LL_USART_DMA_GetRegAddr(USART_TypeDef *USARTx, uint32_t Direction)
{
 800186a:	b480      	push	{r7}
 800186c:	b085      	sub	sp, #20
 800186e:	af00      	add	r7, sp, #0
 8001870:	6078      	str	r0, [r7, #4]
 8001872:	6039      	str	r1, [r7, #0]
  uint32_t data_reg_addr;

  if (Direction == LL_USART_DMA_REG_DATA_TRANSMIT)
 8001874:	683b      	ldr	r3, [r7, #0]
 8001876:	2b00      	cmp	r3, #0
 8001878:	d103      	bne.n	8001882 <LL_USART_DMA_GetRegAddr+0x18>
  {
    /* return address of TDR register */
    data_reg_addr = (uint32_t) &(USARTx->TDR);
 800187a:	687b      	ldr	r3, [r7, #4]
 800187c:	3328      	adds	r3, #40	; 0x28
 800187e:	60fb      	str	r3, [r7, #12]
 8001880:	e002      	b.n	8001888 <LL_USART_DMA_GetRegAddr+0x1e>
  }
  else
  {
    /* return address of RDR register */
    data_reg_addr = (uint32_t) &(USARTx->RDR);
 8001882:	687b      	ldr	r3, [r7, #4]
 8001884:	3324      	adds	r3, #36	; 0x24
 8001886:	60fb      	str	r3, [r7, #12]
  }

  return data_reg_addr;
 8001888:	68fb      	ldr	r3, [r7, #12]
}
 800188a:	4618      	mov	r0, r3
 800188c:	3714      	adds	r7, #20
 800188e:	46bd      	mov	sp, r7
 8001890:	f85d 7b04 	ldr.w	r7, [sp], #4
 8001894:	4770      	bx	lr
	...

08001898 <MX_USART2_UART_Init>:
static void (*USART2_ProcessData)(uint8_t sign, uint8_t index, uint16_t length) = 0;
/* USER CODE END 0 */

/* USART2 init function */

void MX_USART2_UART_Init(void) {
 8001898:	b5b0      	push	{r4, r5, r7, lr}
 800189a:	b090      	sub	sp, #64	; 0x40
 800189c:	af02      	add	r7, sp, #8

	/* USER CODE BEGIN USART2_Init 0 */

	/* USER CODE END USART2_Init 0 */

	LL_USART_InitTypeDef USART_InitStruct = { 0 };
 800189e:	f107 031c 	add.w	r3, r7, #28
 80018a2:	2200      	movs	r2, #0
 80018a4:	601a      	str	r2, [r3, #0]
 80018a6:	605a      	str	r2, [r3, #4]
 80018a8:	609a      	str	r2, [r3, #8]
 80018aa:	60da      	str	r2, [r3, #12]
 80018ac:	611a      	str	r2, [r3, #16]
 80018ae:	615a      	str	r2, [r3, #20]
 80018b0:	619a      	str	r2, [r3, #24]

	LL_GPIO_InitTypeDef GPIO_InitStruct = { 0 };
 80018b2:	1d3b      	adds	r3, r7, #4
 80018b4:	2200      	movs	r2, #0
 80018b6:	601a      	str	r2, [r3, #0]
 80018b8:	605a      	str	r2, [r3, #4]
 80018ba:	609a      	str	r2, [r3, #8]
 80018bc:	60da      	str	r2, [r3, #12]
 80018be:	611a      	str	r2, [r3, #16]
 80018c0:	615a      	str	r2, [r3, #20]

	/* Peripheral clock enable */
	LL_APB1_GRP1_EnableClock(LL_APB1_GRP1_PERIPH_USART2);
 80018c2:	f44f 3000 	mov.w	r0, #131072	; 0x20000
 80018c6:	f7ff ff2b 	bl	8001720 <LL_APB1_GRP1_EnableClock>

	LL_AHB1_GRP1_EnableClock(LL_AHB1_GRP1_PERIPH_GPIOA);
 80018ca:	f44f 3000 	mov.w	r0, #131072	; 0x20000
 80018ce:	f7ff ff0f 	bl	80016f0 <LL_AHB1_GRP1_EnableClock>
	/**USART2 GPIO Configuration
	 PA2   ------> USART2_TX
	 PA15   ------> USART2_RX
	 */
	GPIO_InitStruct.Pin = VCP_TX_Pin | VCP_RX_Pin;
 80018d2:	f248 0304 	movw	r3, #32772	; 0x8004
 80018d6:	607b      	str	r3, [r7, #4]
	GPIO_InitStruct.Mode = LL_GPIO_MODE_ALTERNATE;
 80018d8:	2302      	movs	r3, #2
 80018da:	60bb      	str	r3, [r7, #8]
	GPIO_InitStruct.Speed = LL_GPIO_SPEED_FREQ_HIGH;
 80018dc:	2303      	movs	r3, #3
 80018de:	60fb      	str	r3, [r7, #12]
	GPIO_InitStruct.OutputType = LL_GPIO_OUTPUT_PUSHPULL;
 80018e0:	2300      	movs	r3, #0
 80018e2:	613b      	str	r3, [r7, #16]
	GPIO_InitStruct.Pull = LL_GPIO_PULL_NO;
 80018e4:	2300      	movs	r3, #0
 80018e6:	617b      	str	r3, [r7, #20]
	GPIO_InitStruct.Alternate = LL_GPIO_AF_7;
 80018e8:	2307      	movs	r3, #7
 80018ea:	61bb      	str	r3, [r7, #24]
	LL_GPIO_Init(GPIOA, &GPIO_InitStruct);
 80018ec:	1d3b      	adds	r3, r7, #4
 80018ee:	4619      	mov	r1, r3
 80018f0:	f04f 4090 	mov.w	r0, #1207959552	; 0x48000000
 80018f4:	f000 fa30 	bl	8001d58 <LL_GPIO_Init>

	/* USART2 DMA Init */

	/* USART2_RX Init */
	LL_DMA_SetDataTransferDirection(DMA1, LL_DMA_CHANNEL_6,
 80018f8:	2200      	movs	r2, #0
 80018fa:	2106      	movs	r1, #6
 80018fc:	483f      	ldr	r0, [pc, #252]	; (80019fc <MX_USART2_UART_Init+0x164>)
 80018fe:	f7ff fd03 	bl	8001308 <LL_DMA_SetDataTransferDirection>
	LL_DMA_DIRECTION_PERIPH_TO_MEMORY);

	LL_DMA_SetChannelPriorityLevel(DMA1, LL_DMA_CHANNEL_6,
 8001902:	f44f 5280 	mov.w	r2, #4096	; 0x1000
 8001906:	2106      	movs	r1, #6
 8001908:	483c      	ldr	r0, [pc, #240]	; (80019fc <MX_USART2_UART_Init+0x164>)
 800190a:	f7ff fdef 	bl	80014ec <LL_DMA_SetChannelPriorityLevel>
	LL_DMA_PRIORITY_MEDIUM);

	LL_DMA_SetMode(DMA1, LL_DMA_CHANNEL_6, LL_DMA_MODE_NORMAL);
 800190e:	2200      	movs	r2, #0
 8001910:	2106      	movs	r1, #6
 8001912:	483a      	ldr	r0, [pc, #232]	; (80019fc <MX_USART2_UART_Init+0x164>)
 8001914:	f7ff fd36 	bl	8001384 <LL_DMA_SetMode>

	LL_DMA_SetPeriphIncMode(DMA1, LL_DMA_CHANNEL_6, LL_DMA_PERIPH_NOINCREMENT);
 8001918:	2200      	movs	r2, #0
 800191a:	2106      	movs	r1, #6
 800191c:	4837      	ldr	r0, [pc, #220]	; (80019fc <MX_USART2_UART_Init+0x164>)
 800191e:	f7ff fd55 	bl	80013cc <LL_DMA_SetPeriphIncMode>

	LL_DMA_SetMemoryIncMode(DMA1, LL_DMA_CHANNEL_6, LL_DMA_MEMORY_INCREMENT);
 8001922:	2280      	movs	r2, #128	; 0x80
 8001924:	2106      	movs	r1, #6
 8001926:	4835      	ldr	r0, [pc, #212]	; (80019fc <MX_USART2_UART_Init+0x164>)
 8001928:	f7ff fd74 	bl	8001414 <LL_DMA_SetMemoryIncMode>

	LL_DMA_SetPeriphSize(DMA1, LL_DMA_CHANNEL_6, LL_DMA_PDATAALIGN_BYTE);
 800192c:	2200      	movs	r2, #0
 800192e:	2106      	movs	r1, #6
 8001930:	4832      	ldr	r0, [pc, #200]	; (80019fc <MX_USART2_UART_Init+0x164>)
 8001932:	f7ff fd93 	bl	800145c <LL_DMA_SetPeriphSize>

	LL_DMA_SetMemorySize(DMA1, LL_DMA_CHANNEL_6, LL_DMA_MDATAALIGN_BYTE);
 8001936:	2200      	movs	r2, #0
 8001938:	2106      	movs	r1, #6
 800193a:	4830      	ldr	r0, [pc, #192]	; (80019fc <MX_USART2_UART_Init+0x164>)
 800193c:	f7ff fdb2 	bl	80014a4 <LL_DMA_SetMemorySize>

	/* USART2 interrupt Init */
	NVIC_SetPriority(USART2_IRQn,
 8001940:	f7ff fc18 	bl	8001174 <__NVIC_GetPriorityGrouping>
 8001944:	4603      	mov	r3, r0
 8001946:	2200      	movs	r2, #0
 8001948:	2100      	movs	r1, #0
 800194a:	4618      	mov	r0, r3
 800194c:	f7ff fc68 	bl	8001220 <NVIC_EncodePriority>
 8001950:	4603      	mov	r3, r0
 8001952:	4619      	mov	r1, r3
 8001954:	2026      	movs	r0, #38	; 0x26
 8001956:	f7ff fc39 	bl	80011cc <__NVIC_SetPriority>
			NVIC_EncodePriority(NVIC_GetPriorityGrouping(), 0, 0));
	NVIC_EnableIRQ(USART2_IRQn);
 800195a:	2026      	movs	r0, #38	; 0x26
 800195c:	f7ff fc18 	bl	8001190 <__NVIC_EnableIRQ>

	/* USER CODE BEGIN USART2_Init 1 */
	LL_DMA_ConfigAddresses(DMA1, LL_DMA_CHANNEL_6,
 8001960:	2101      	movs	r1, #1
 8001962:	4827      	ldr	r0, [pc, #156]	; (8001a00 <MX_USART2_UART_Init+0x168>)
 8001964:	f7ff ff81 	bl	800186a <LL_USART_DMA_GetRegAddr>
 8001968:	4604      	mov	r4, r0
 800196a:	4d26      	ldr	r5, [pc, #152]	; (8001a04 <MX_USART2_UART_Init+0x16c>)
 800196c:	2106      	movs	r1, #6
 800196e:	4823      	ldr	r0, [pc, #140]	; (80019fc <MX_USART2_UART_Init+0x164>)
 8001970:	f7ff fcf0 	bl	8001354 <LL_DMA_GetDataTransferDirection>
 8001974:	4603      	mov	r3, r0
 8001976:	9300      	str	r3, [sp, #0]
 8001978:	462b      	mov	r3, r5
 800197a:	4622      	mov	r2, r4
 800197c:	2106      	movs	r1, #6
 800197e:	481f      	ldr	r0, [pc, #124]	; (80019fc <MX_USART2_UART_Init+0x164>)
 8001980:	f7ff fe12 	bl	80015a8 <LL_DMA_ConfigAddresses>
			LL_USART_DMA_GetRegAddr(USART2, LL_USART_DMA_REG_DATA_RECEIVE),
			(uint32_t) bufferUSART2dma,
			LL_DMA_GetDataTransferDirection(DMA1, LL_DMA_CHANNEL_6));
	LL_DMA_SetDataLength(DMA1, LL_DMA_CHANNEL_6, DMA_USART2_BUFFER_SIZE);
 8001984:	2280      	movs	r2, #128	; 0x80
 8001986:	2106      	movs	r1, #6
 8001988:	481c      	ldr	r0, [pc, #112]	; (80019fc <MX_USART2_UART_Init+0x164>)
 800198a:	f7ff fdd3 	bl	8001534 <LL_DMA_SetDataLength>
	LL_DMA_EnableChannel(DMA1, LL_DMA_CHANNEL_6);
 800198e:	2106      	movs	r1, #6
 8001990:	481a      	ldr	r0, [pc, #104]	; (80019fc <MX_USART2_UART_Init+0x164>)
 8001992:	f7ff fc79 	bl	8001288 <LL_DMA_EnableChannel>
	//Interrupts
	LL_USART_EnableDMAReq_RX(USART2);
 8001996:	481a      	ldr	r0, [pc, #104]	; (8001a00 <MX_USART2_UART_Init+0x168>)
 8001998:	f7ff ff44 	bl	8001824 <LL_USART_EnableDMAReq_RX>
	LL_DMA_EnableIT_TC(DMA1, LL_DMA_CHANNEL_6);
 800199c:	2106      	movs	r1, #6
 800199e:	4817      	ldr	r0, [pc, #92]	; (80019fc <MX_USART2_UART_Init+0x164>)
 80019a0:	f7ff fe66 	bl	8001670 <LL_DMA_EnableIT_TC>
	LL_DMA_EnableIT_HT(DMA1, LL_DMA_CHANNEL_6);
 80019a4:	2106      	movs	r1, #6
 80019a6:	4815      	ldr	r0, [pc, #84]	; (80019fc <MX_USART2_UART_Init+0x164>)
 80019a8:	f7ff fe82 	bl	80016b0 <LL_DMA_EnableIT_HT>
	/* USER CODE END USART2_Init 1 */
	USART_InitStruct.BaudRate = 115200;
 80019ac:	f44f 33e1 	mov.w	r3, #115200	; 0x1c200
 80019b0:	61fb      	str	r3, [r7, #28]
	USART_InitStruct.DataWidth = LL_USART_DATAWIDTH_8B;
 80019b2:	2300      	movs	r3, #0
 80019b4:	623b      	str	r3, [r7, #32]
	USART_InitStruct.StopBits = LL_USART_STOPBITS_1;
 80019b6:	2300      	movs	r3, #0
 80019b8:	627b      	str	r3, [r7, #36]	; 0x24
	USART_InitStruct.Parity = LL_USART_PARITY_NONE;
 80019ba:	2300      	movs	r3, #0
 80019bc:	62bb      	str	r3, [r7, #40]	; 0x28
	USART_InitStruct.TransferDirection = LL_USART_DIRECTION_TX_RX;
 80019be:	230c      	movs	r3, #12
 80019c0:	62fb      	str	r3, [r7, #44]	; 0x2c
	USART_InitStruct.HardwareFlowControl = LL_USART_HWCONTROL_NONE;
 80019c2:	2300      	movs	r3, #0
 80019c4:	633b      	str	r3, [r7, #48]	; 0x30
	USART_InitStruct.OverSampling = LL_USART_OVERSAMPLING_16;
 80019c6:	2300      	movs	r3, #0
 80019c8:	637b      	str	r3, [r7, #52]	; 0x34
	LL_USART_Init(USART2, &USART_InitStruct);
 80019ca:	f107 031c 	add.w	r3, r7, #28
 80019ce:	4619      	mov	r1, r3
 80019d0:	480b      	ldr	r0, [pc, #44]	; (8001a00 <MX_USART2_UART_Init+0x168>)
 80019d2:	f001 f843 	bl	8002a5c <LL_USART_Init>
	LL_USART_DisableIT_CTS(USART2);
 80019d6:	480a      	ldr	r0, [pc, #40]	; (8001a00 <MX_USART2_UART_Init+0x168>)
 80019d8:	f7ff ff01 	bl	80017de <LL_USART_DisableIT_CTS>
	LL_USART_ConfigAsyncMode(USART2);
 80019dc:	4808      	ldr	r0, [pc, #32]	; (8001a00 <MX_USART2_UART_Init+0x168>)
 80019de:	f7ff fec7 	bl	8001770 <LL_USART_ConfigAsyncMode>
	LL_USART_Enable(USART2);
 80019e2:	4807      	ldr	r0, [pc, #28]	; (8001a00 <MX_USART2_UART_Init+0x168>)
 80019e4:	f7ff feb4 	bl	8001750 <LL_USART_Enable>
	/* USER CODE BEGIN USART2_Init 2 */
	LL_USART_EnableIT_IDLE(USART2);
 80019e8:	4805      	ldr	r0, [pc, #20]	; (8001a00 <MX_USART2_UART_Init+0x168>)
 80019ea:	f7ff fed7 	bl	800179c <LL_USART_EnableIT_IDLE>
	LL_USART_Enable(USART2);
 80019ee:	4804      	ldr	r0, [pc, #16]	; (8001a00 <MX_USART2_UART_Init+0x168>)
 80019f0:	f7ff feae 	bl	8001750 <LL_USART_Enable>
	/* USER CODE END USART2_Init 2 */

}
 80019f4:	bf00      	nop
 80019f6:	3738      	adds	r7, #56	; 0x38
 80019f8:	46bd      	mov	sp, r7
 80019fa:	bdb0      	pop	{r4, r5, r7, pc}
 80019fc:	40020000 	.word	0x40020000
 8001a00:	40004400 	.word	0x40004400
 8001a04:	200000ec 	.word	0x200000ec

08001a08 <USART2_RegisterCallback>:

/* USER CODE BEGIN 1 */
void USART2_RegisterCallback(void *callback) {
 8001a08:	b480      	push	{r7}
 8001a0a:	b083      	sub	sp, #12
 8001a0c:	af00      	add	r7, sp, #0
 8001a0e:	6078      	str	r0, [r7, #4]
	if (callback != 0) {
 8001a10:	687b      	ldr	r3, [r7, #4]
 8001a12:	2b00      	cmp	r3, #0
 8001a14:	d002      	beq.n	8001a1c <USART2_RegisterCallback+0x14>
		USART2_ProcessData = callback;
 8001a16:	687b      	ldr	r3, [r7, #4]
 8001a18:	4a03      	ldr	r2, [pc, #12]	; (8001a28 <USART2_RegisterCallback+0x20>)
 8001a1a:	6013      	str	r3, [r2, #0]
	}
}
 8001a1c:	bf00      	nop
 8001a1e:	370c      	adds	r7, #12
 8001a20:	46bd      	mov	sp, r7
 8001a22:	f85d 7b04 	ldr.w	r7, [sp], #4
 8001a26:	4770      	bx	lr
 8001a28:	2000008c 	.word	0x2000008c

08001a2c <USART2_CheckDmaReception>:

void USART2_CheckDmaReception(void) {
 8001a2c:	b580      	push	{r7, lr}
 8001a2e:	b082      	sub	sp, #8
 8001a30:	af00      	add	r7, sp, #0
	if (USART2_ProcessData == 0)
 8001a32:	4b2d      	ldr	r3, [pc, #180]	; (8001ae8 <USART2_CheckDmaReception+0xbc>)
 8001a34:	681b      	ldr	r3, [r3, #0]
 8001a36:	2b00      	cmp	r3, #0
 8001a38:	d052      	beq.n	8001ae0 <USART2_CheckDmaReception+0xb4>
		return;
	static uint16_t old_pos = 0;

	uint16_t pos = DMA_USART2_BUFFER_SIZE
			- LL_DMA_GetDataLength(DMA1, LL_DMA_CHANNEL_6);
 8001a3a:	2106      	movs	r1, #6
 8001a3c:	482b      	ldr	r0, [pc, #172]	; (8001aec <USART2_CheckDmaReception+0xc0>)
 8001a3e:	f7ff fd9d 	bl	800157c <LL_DMA_GetDataLength>
 8001a42:	4603      	mov	r3, r0
 8001a44:	b29b      	uxth	r3, r3
	uint16_t pos = DMA_USART2_BUFFER_SIZE
 8001a46:	f1c3 0380 	rsb	r3, r3, #128	; 0x80
 8001a4a:	80fb      	strh	r3, [r7, #6]
	if (pos != old_pos) {
 8001a4c:	4b28      	ldr	r3, [pc, #160]	; (8001af0 <USART2_CheckDmaReception+0xc4>)
 8001a4e:	881b      	ldrh	r3, [r3, #0]
 8001a50:	88fa      	ldrh	r2, [r7, #6]
 8001a52:	429a      	cmp	r2, r3
 8001a54:	d03c      	beq.n	8001ad0 <USART2_CheckDmaReception+0xa4>
		if (pos > old_pos) {
 8001a56:	4b26      	ldr	r3, [pc, #152]	; (8001af0 <USART2_CheckDmaReception+0xc4>)
 8001a58:	881b      	ldrh	r3, [r3, #0]
 8001a5a:	88fa      	ldrh	r2, [r7, #6]
 8001a5c:	429a      	cmp	r2, r3
 8001a5e:	d937      	bls.n	8001ad0 <USART2_CheckDmaReception+0xa4>
			for (uint8_t i = old_pos; i < pos; i++) {
 8001a60:	4b23      	ldr	r3, [pc, #140]	; (8001af0 <USART2_CheckDmaReception+0xc4>)
 8001a62:	881b      	ldrh	r3, [r3, #0]
 8001a64:	717b      	strb	r3, [r7, #5]
 8001a66:	e00c      	b.n	8001a82 <USART2_CheckDmaReception+0x56>
				uint8_t sign = bufferUSART2dma[i];
 8001a68:	797b      	ldrb	r3, [r7, #5]
 8001a6a:	4a22      	ldr	r2, [pc, #136]	; (8001af4 <USART2_CheckDmaReception+0xc8>)
 8001a6c:	5cd3      	ldrb	r3, [r2, r3]
 8001a6e:	713b      	strb	r3, [r7, #4]
				USART2_ProcessData(sign, i, pos);
 8001a70:	4b1d      	ldr	r3, [pc, #116]	; (8001ae8 <USART2_CheckDmaReception+0xbc>)
 8001a72:	681b      	ldr	r3, [r3, #0]
 8001a74:	88fa      	ldrh	r2, [r7, #6]
 8001a76:	7979      	ldrb	r1, [r7, #5]
 8001a78:	7938      	ldrb	r0, [r7, #4]
 8001a7a:	4798      	blx	r3
			for (uint8_t i = old_pos; i < pos; i++) {
 8001a7c:	797b      	ldrb	r3, [r7, #5]
 8001a7e:	3301      	adds	r3, #1
 8001a80:	717b      	strb	r3, [r7, #5]
 8001a82:	797b      	ldrb	r3, [r7, #5]
 8001a84:	b29b      	uxth	r3, r3
 8001a86:	88fa      	ldrh	r2, [r7, #6]
 8001a88:	429a      	cmp	r2, r3
 8001a8a:	d8ed      	bhi.n	8001a68 <USART2_CheckDmaReception+0x3c>
			}
			if (LL_DMA_IsActiveFlag_HT6(DMA1) == SET
 8001a8c:	4817      	ldr	r0, [pc, #92]	; (8001aec <USART2_CheckDmaReception+0xc0>)
 8001a8e:	f7ff fddb 	bl	8001648 <LL_DMA_IsActiveFlag_HT6>
 8001a92:	4603      	mov	r3, r0
 8001a94:	2b01      	cmp	r3, #1
 8001a96:	d005      	beq.n	8001aa4 <USART2_CheckDmaReception+0x78>
					|| LL_DMA_IsActiveFlag_TC6(DMA1) == SET) {
 8001a98:	4814      	ldr	r0, [pc, #80]	; (8001aec <USART2_CheckDmaReception+0xc0>)
 8001a9a:	f7ff fdc1 	bl	8001620 <LL_DMA_IsActiveFlag_TC6>
 8001a9e:	4603      	mov	r3, r0
 8001aa0:	2b01      	cmp	r3, #1
 8001aa2:	d115      	bne.n	8001ad0 <USART2_CheckDmaReception+0xa4>
				LL_DMA_DisableChannel(DMA1, LL_DMA_CHANNEL_6);
 8001aa4:	2106      	movs	r1, #6
 8001aa6:	4811      	ldr	r0, [pc, #68]	; (8001aec <USART2_CheckDmaReception+0xc0>)
 8001aa8:	f7ff fc0e 	bl	80012c8 <LL_DMA_DisableChannel>
				LL_DMA_SetDataLength(DMA1, LL_DMA_CHANNEL_6,
 8001aac:	2280      	movs	r2, #128	; 0x80
 8001aae:	2106      	movs	r1, #6
 8001ab0:	480e      	ldr	r0, [pc, #56]	; (8001aec <USART2_CheckDmaReception+0xc0>)
 8001ab2:	f7ff fd3f 	bl	8001534 <LL_DMA_SetDataLength>
				DMA_USART2_BUFFER_SIZE);
				LL_DMA_EnableChannel(DMA1, LL_DMA_CHANNEL_6);
 8001ab6:	2106      	movs	r1, #6
 8001ab8:	480c      	ldr	r0, [pc, #48]	; (8001aec <USART2_CheckDmaReception+0xc0>)
 8001aba:	f7ff fbe5 	bl	8001288 <LL_DMA_EnableChannel>
				pos = DMA_USART2_BUFFER_SIZE
						- LL_DMA_GetDataLength(DMA1, LL_DMA_CHANNEL_6);
 8001abe:	2106      	movs	r1, #6
 8001ac0:	480a      	ldr	r0, [pc, #40]	; (8001aec <USART2_CheckDmaReception+0xc0>)
 8001ac2:	f7ff fd5b 	bl	800157c <LL_DMA_GetDataLength>
 8001ac6:	4603      	mov	r3, r0
 8001ac8:	b29b      	uxth	r3, r3
				pos = DMA_USART2_BUFFER_SIZE
 8001aca:	f1c3 0380 	rsb	r3, r3, #128	; 0x80
 8001ace:	80fb      	strh	r3, [r7, #6]
			}

		}

	}
	old_pos = pos;
 8001ad0:	4a07      	ldr	r2, [pc, #28]	; (8001af0 <USART2_CheckDmaReception+0xc4>)
 8001ad2:	88fb      	ldrh	r3, [r7, #6]
 8001ad4:	8013      	strh	r3, [r2, #0]

	BufferCapacity.reserved = old_pos;
 8001ad6:	4b06      	ldr	r3, [pc, #24]	; (8001af0 <USART2_CheckDmaReception+0xc4>)
 8001ad8:	881a      	ldrh	r2, [r3, #0]
 8001ada:	4b07      	ldr	r3, [pc, #28]	; (8001af8 <USART2_CheckDmaReception+0xcc>)
 8001adc:	805a      	strh	r2, [r3, #2]
 8001ade:	e000      	b.n	8001ae2 <USART2_CheckDmaReception+0xb6>
		return;
 8001ae0:	bf00      	nop
}
 8001ae2:	3708      	adds	r7, #8
 8001ae4:	46bd      	mov	sp, r7
 8001ae6:	bd80      	pop	{r7, pc}
 8001ae8:	2000008c 	.word	0x2000008c
 8001aec:	40020000 	.word	0x40020000
 8001af0:	20000090 	.word	0x20000090
 8001af4:	200000ec 	.word	0x200000ec
 8001af8:	2000009c 	.word	0x2000009c

08001afc <Reset_Handler>:
 8001afc:	f8df d034 	ldr.w	sp, [pc, #52]	; 8001b34 <LoopForever+0x2>
 8001b00:	480d      	ldr	r0, [pc, #52]	; (8001b38 <LoopForever+0x6>)
 8001b02:	490e      	ldr	r1, [pc, #56]	; (8001b3c <LoopForever+0xa>)
 8001b04:	4a0e      	ldr	r2, [pc, #56]	; (8001b40 <LoopForever+0xe>)
 8001b06:	2300      	movs	r3, #0
 8001b08:	e002      	b.n	8001b10 <LoopCopyDataInit>

08001b0a <CopyDataInit>:
 8001b0a:	58d4      	ldr	r4, [r2, r3]
 8001b0c:	50c4      	str	r4, [r0, r3]
 8001b0e:	3304      	adds	r3, #4

08001b10 <LoopCopyDataInit>:
 8001b10:	18c4      	adds	r4, r0, r3
 8001b12:	428c      	cmp	r4, r1
 8001b14:	d3f9      	bcc.n	8001b0a <CopyDataInit>
 8001b16:	4a0b      	ldr	r2, [pc, #44]	; (8001b44 <LoopForever+0x12>)
 8001b18:	4c0b      	ldr	r4, [pc, #44]	; (8001b48 <LoopForever+0x16>)
 8001b1a:	2300      	movs	r3, #0
 8001b1c:	e001      	b.n	8001b22 <LoopFillZerobss>

08001b1e <FillZerobss>:
 8001b1e:	6013      	str	r3, [r2, #0]
 8001b20:	3204      	adds	r2, #4

08001b22 <LoopFillZerobss>:
 8001b22:	42a2      	cmp	r2, r4
 8001b24:	d3fb      	bcc.n	8001b1e <FillZerobss>
 8001b26:	f7ff f889 	bl	8000c3c <SystemInit>
 8001b2a:	f001 f845 	bl	8002bb8 <__libc_init_array>
 8001b2e:	f7fe fd43 	bl	80005b8 <main>

08001b32 <LoopForever>:
 8001b32:	e7fe      	b.n	8001b32 <LoopForever>
 8001b34:	20003000 	.word	0x20003000
 8001b38:	20000000 	.word	0x20000000
 8001b3c:	20000068 	.word	0x20000068
 8001b40:	08002ed8 	.word	0x08002ed8
 8001b44:	20000068 	.word	0x20000068
 8001b48:	2000016c 	.word	0x2000016c

08001b4c <ADC1_2_IRQHandler>:
 8001b4c:	e7fe      	b.n	8001b4c <ADC1_2_IRQHandler>

08001b4e <LL_GPIO_SetPinMode>:
 8001b4e:	b480      	push	{r7}
 8001b50:	b089      	sub	sp, #36	; 0x24
 8001b52:	af00      	add	r7, sp, #0
 8001b54:	60f8      	str	r0, [r7, #12]
 8001b56:	60b9      	str	r1, [r7, #8]
 8001b58:	607a      	str	r2, [r7, #4]
 8001b5a:	68fb      	ldr	r3, [r7, #12]
 8001b5c:	681a      	ldr	r2, [r3, #0]
 8001b5e:	68bb      	ldr	r3, [r7, #8]
 8001b60:	617b      	str	r3, [r7, #20]
 8001b62:	697b      	ldr	r3, [r7, #20]
 8001b64:	fa93 f3a3 	rbit	r3, r3
 8001b68:	613b      	str	r3, [r7, #16]
 8001b6a:	693b      	ldr	r3, [r7, #16]
 8001b6c:	fab3 f383 	clz	r3, r3
 8001b70:	b2db      	uxtb	r3, r3
 8001b72:	005b      	lsls	r3, r3, #1
 8001b74:	2103      	movs	r1, #3
 8001b76:	fa01 f303 	lsl.w	r3, r1, r3
 8001b7a:	43db      	mvns	r3, r3
 8001b7c:	401a      	ands	r2, r3
 8001b7e:	68bb      	ldr	r3, [r7, #8]
 8001b80:	61fb      	str	r3, [r7, #28]
 8001b82:	69fb      	ldr	r3, [r7, #28]
 8001b84:	fa93 f3a3 	rbit	r3, r3
 8001b88:	61bb      	str	r3, [r7, #24]
 8001b8a:	69bb      	ldr	r3, [r7, #24]
 8001b8c:	fab3 f383 	clz	r3, r3
 8001b90:	b2db      	uxtb	r3, r3
 8001b92:	005b      	lsls	r3, r3, #1
 8001b94:	6879      	ldr	r1, [r7, #4]
 8001b96:	fa01 f303 	lsl.w	r3, r1, r3
 8001b9a:	431a      	orrs	r2, r3
 8001b9c:	68fb      	ldr	r3, [r7, #12]
 8001b9e:	601a      	str	r2, [r3, #0]
 8001ba0:	bf00      	nop
 8001ba2:	3724      	adds	r7, #36	; 0x24
 8001ba4:	46bd      	mov	sp, r7
 8001ba6:	f85d 7b04 	ldr.w	r7, [sp], #4
 8001baa:	4770      	bx	lr

08001bac <LL_GPIO_SetPinOutputType>:
 8001bac:	b480      	push	{r7}
 8001bae:	b085      	sub	sp, #20
 8001bb0:	af00      	add	r7, sp, #0
 8001bb2:	60f8      	str	r0, [r7, #12]
 8001bb4:	60b9      	str	r1, [r7, #8]
 8001bb6:	607a      	str	r2, [r7, #4]
 8001bb8:	68fb      	ldr	r3, [r7, #12]
 8001bba:	685a      	ldr	r2, [r3, #4]
 8001bbc:	68bb      	ldr	r3, [r7, #8]
 8001bbe:	43db      	mvns	r3, r3
 8001bc0:	401a      	ands	r2, r3
 8001bc2:	68bb      	ldr	r3, [r7, #8]
 8001bc4:	6879      	ldr	r1, [r7, #4]
 8001bc6:	fb01 f303 	mul.w	r3, r1, r3
 8001bca:	431a      	orrs	r2, r3
 8001bcc:	68fb      	ldr	r3, [r7, #12]
 8001bce:	605a      	str	r2, [r3, #4]
 8001bd0:	bf00      	nop
 8001bd2:	3714      	adds	r7, #20
 8001bd4:	46bd      	mov	sp, r7
 8001bd6:	f85d 7b04 	ldr.w	r7, [sp], #4
 8001bda:	4770      	bx	lr

08001bdc <LL_GPIO_SetPinSpeed>:
 8001bdc:	b480      	push	{r7}
 8001bde:	b089      	sub	sp, #36	; 0x24
 8001be0:	af00      	add	r7, sp, #0
 8001be2:	60f8      	str	r0, [r7, #12]
 8001be4:	60b9      	str	r1, [r7, #8]
 8001be6:	607a      	str	r2, [r7, #4]
 8001be8:	68fb      	ldr	r3, [r7, #12]
 8001bea:	689a      	ldr	r2, [r3, #8]
 8001bec:	68bb      	ldr	r3, [r7, #8]
 8001bee:	617b      	str	r3, [r7, #20]
 8001bf0:	697b      	ldr	r3, [r7, #20]
 8001bf2:	fa93 f3a3 	rbit	r3, r3
 8001bf6:	613b      	str	r3, [r7, #16]
 8001bf8:	693b      	ldr	r3, [r7, #16]
 8001bfa:	fab3 f383 	clz	r3, r3
 8001bfe:	b2db      	uxtb	r3, r3
 8001c00:	005b      	lsls	r3, r3, #1
 8001c02:	2103      	movs	r1, #3
 8001c04:	fa01 f303 	lsl.w	r3, r1, r3
 8001c08:	43db      	mvns	r3, r3
 8001c0a:	401a      	ands	r2, r3
 8001c0c:	68bb      	ldr	r3, [r7, #8]
 8001c0e:	61fb      	str	r3, [r7, #28]
 8001c10:	69fb      	ldr	r3, [r7, #28]
 8001c12:	fa93 f3a3 	rbit	r3, r3
 8001c16:	61bb      	str	r3, [r7, #24]
 8001c18:	69bb      	ldr	r3, [r7, #24]
 8001c1a:	fab3 f383 	clz	r3, r3
 8001c1e:	b2db      	uxtb	r3, r3
 8001c20:	005b      	lsls	r3, r3, #1
 8001c22:	6879      	ldr	r1, [r7, #4]
 8001c24:	fa01 f303 	lsl.w	r3, r1, r3
 8001c28:	431a      	orrs	r2, r3
 8001c2a:	68fb      	ldr	r3, [r7, #12]
 8001c2c:	609a      	str	r2, [r3, #8]
 8001c2e:	bf00      	nop
 8001c30:	3724      	adds	r7, #36	; 0x24
 8001c32:	46bd      	mov	sp, r7
 8001c34:	f85d 7b04 	ldr.w	r7, [sp], #4
 8001c38:	4770      	bx	lr

08001c3a <LL_GPIO_SetPinPull>:
 8001c3a:	b480      	push	{r7}
 8001c3c:	b089      	sub	sp, #36	; 0x24
 8001c3e:	af00      	add	r7, sp, #0
 8001c40:	60f8      	str	r0, [r7, #12]
 8001c42:	60b9      	str	r1, [r7, #8]
 8001c44:	607a      	str	r2, [r7, #4]
 8001c46:	68fb      	ldr	r3, [r7, #12]
 8001c48:	68da      	ldr	r2, [r3, #12]
 8001c4a:	68bb      	ldr	r3, [r7, #8]
 8001c4c:	617b      	str	r3, [r7, #20]
 8001c4e:	697b      	ldr	r3, [r7, #20]
 8001c50:	fa93 f3a3 	rbit	r3, r3
 8001c54:	613b      	str	r3, [r7, #16]
 8001c56:	693b      	ldr	r3, [r7, #16]
 8001c58:	fab3 f383 	clz	r3, r3
 8001c5c:	b2db      	uxtb	r3, r3
 8001c5e:	005b      	lsls	r3, r3, #1
 8001c60:	2103      	movs	r1, #3
 8001c62:	fa01 f303 	lsl.w	r3, r1, r3
 8001c66:	43db      	mvns	r3, r3
 8001c68:	401a      	ands	r2, r3
 8001c6a:	68bb      	ldr	r3, [r7, #8]
 8001c6c:	61fb      	str	r3, [r7, #28]
 8001c6e:	69fb      	ldr	r3, [r7, #28]
 8001c70:	fa93 f3a3 	rbit	r3, r3
 8001c74:	61bb      	str	r3, [r7, #24]
 8001c76:	69bb      	ldr	r3, [r7, #24]
 8001c78:	fab3 f383 	clz	r3, r3
 8001c7c:	b2db      	uxtb	r3, r3
 8001c7e:	005b      	lsls	r3, r3, #1
 8001c80:	6879      	ldr	r1, [r7, #4]
 8001c82:	fa01 f303 	lsl.w	r3, r1, r3
 8001c86:	431a      	orrs	r2, r3
 8001c88:	68fb      	ldr	r3, [r7, #12]
 8001c8a:	60da      	str	r2, [r3, #12]
 8001c8c:	bf00      	nop
 8001c8e:	3724      	adds	r7, #36	; 0x24
 8001c90:	46bd      	mov	sp, r7
 8001c92:	f85d 7b04 	ldr.w	r7, [sp], #4
 8001c96:	4770      	bx	lr

08001c98 <LL_GPIO_SetAFPin_0_7>:
 8001c98:	b480      	push	{r7}
 8001c9a:	b089      	sub	sp, #36	; 0x24
 8001c9c:	af00      	add	r7, sp, #0
 8001c9e:	60f8      	str	r0, [r7, #12]
 8001ca0:	60b9      	str	r1, [r7, #8]
 8001ca2:	607a      	str	r2, [r7, #4]
 8001ca4:	68fb      	ldr	r3, [r7, #12]
 8001ca6:	6a1a      	ldr	r2, [r3, #32]
 8001ca8:	68bb      	ldr	r3, [r7, #8]
 8001caa:	617b      	str	r3, [r7, #20]
 8001cac:	697b      	ldr	r3, [r7, #20]
 8001cae:	fa93 f3a3 	rbit	r3, r3
 8001cb2:	613b      	str	r3, [r7, #16]
 8001cb4:	693b      	ldr	r3, [r7, #16]
 8001cb6:	fab3 f383 	clz	r3, r3
 8001cba:	b2db      	uxtb	r3, r3
 8001cbc:	009b      	lsls	r3, r3, #2
 8001cbe:	210f      	movs	r1, #15
 8001cc0:	fa01 f303 	lsl.w	r3, r1, r3
 8001cc4:	43db      	mvns	r3, r3
 8001cc6:	401a      	ands	r2, r3
 8001cc8:	68bb      	ldr	r3, [r7, #8]
 8001cca:	61fb      	str	r3, [r7, #28]
 8001ccc:	69fb      	ldr	r3, [r7, #28]
 8001cce:	fa93 f3a3 	rbit	r3, r3
 8001cd2:	61bb      	str	r3, [r7, #24]
 8001cd4:	69bb      	ldr	r3, [r7, #24]
 8001cd6:	fab3 f383 	clz	r3, r3
 8001cda:	b2db      	uxtb	r3, r3
 8001cdc:	009b      	lsls	r3, r3, #2
 8001cde:	6879      	ldr	r1, [r7, #4]
 8001ce0:	fa01 f303 	lsl.w	r3, r1, r3
 8001ce4:	431a      	orrs	r2, r3
 8001ce6:	68fb      	ldr	r3, [r7, #12]
 8001ce8:	621a      	str	r2, [r3, #32]
 8001cea:	bf00      	nop
 8001cec:	3724      	adds	r7, #36	; 0x24
 8001cee:	46bd      	mov	sp, r7
 8001cf0:	f85d 7b04 	ldr.w	r7, [sp], #4
 8001cf4:	4770      	bx	lr

08001cf6 <LL_GPIO_SetAFPin_8_15>:
 8001cf6:	b480      	push	{r7}
 8001cf8:	b089      	sub	sp, #36	; 0x24
 8001cfa:	af00      	add	r7, sp, #0
 8001cfc:	60f8      	str	r0, [r7, #12]
 8001cfe:	60b9      	str	r1, [r7, #8]
 8001d00:	607a      	str	r2, [r7, #4]
 8001d02:	68fb      	ldr	r3, [r7, #12]
 8001d04:	6a5a      	ldr	r2, [r3, #36]	; 0x24
 8001d06:	68bb      	ldr	r3, [r7, #8]
 8001d08:	0a1b      	lsrs	r3, r3, #8
 8001d0a:	617b      	str	r3, [r7, #20]
 8001d0c:	697b      	ldr	r3, [r7, #20]
 8001d0e:	fa93 f3a3 	rbit	r3, r3
 8001d12:	613b      	str	r3, [r7, #16]
 8001d14:	693b      	ldr	r3, [r7, #16]
 8001d16:	fab3 f383 	clz	r3, r3
 8001d1a:	b2db      	uxtb	r3, r3
 8001d1c:	009b      	lsls	r3, r3, #2
 8001d1e:	210f      	movs	r1, #15
 8001d20:	fa01 f303 	lsl.w	r3, r1, r3
 8001d24:	43db      	mvns	r3, r3
 8001d26:	401a      	ands	r2, r3
 8001d28:	68bb      	ldr	r3, [r7, #8]
 8001d2a:	0a1b      	lsrs	r3, r3, #8
 8001d2c:	61fb      	str	r3, [r7, #28]
 8001d2e:	69fb      	ldr	r3, [r7, #28]
 8001d30:	fa93 f3a3 	rbit	r3, r3
 8001d34:	61bb      	str	r3, [r7, #24]
 8001d36:	69bb      	ldr	r3, [r7, #24]
 8001d38:	fab3 f383 	clz	r3, r3
 8001d3c:	b2db      	uxtb	r3, r3
 8001d3e:	009b      	lsls	r3, r3, #2
 8001d40:	6879      	ldr	r1, [r7, #4]
 8001d42:	fa01 f303 	lsl.w	r3, r1, r3
 8001d46:	431a      	orrs	r2, r3
 8001d48:	68fb      	ldr	r3, [r7, #12]
 8001d4a:	625a      	str	r2, [r3, #36]	; 0x24
 8001d4c:	bf00      	nop
 8001d4e:	3724      	adds	r7, #36	; 0x24
 8001d50:	46bd      	mov	sp, r7
 8001d52:	f85d 7b04 	ldr.w	r7, [sp], #4
 8001d56:	4770      	bx	lr

08001d58 <LL_GPIO_Init>:
 8001d58:	b580      	push	{r7, lr}
 8001d5a:	b088      	sub	sp, #32
 8001d5c:	af00      	add	r7, sp, #0
 8001d5e:	6078      	str	r0, [r7, #4]
 8001d60:	6039      	str	r1, [r7, #0]
 8001d62:	683b      	ldr	r3, [r7, #0]
 8001d64:	681b      	ldr	r3, [r3, #0]
 8001d66:	617b      	str	r3, [r7, #20]
 8001d68:	697b      	ldr	r3, [r7, #20]
 8001d6a:	fa93 f3a3 	rbit	r3, r3
 8001d6e:	613b      	str	r3, [r7, #16]
 8001d70:	693b      	ldr	r3, [r7, #16]
 8001d72:	fab3 f383 	clz	r3, r3
 8001d76:	b2db      	uxtb	r3, r3
 8001d78:	61fb      	str	r3, [r7, #28]
 8001d7a:	e051      	b.n	8001e20 <LL_GPIO_Init+0xc8>
 8001d7c:	683b      	ldr	r3, [r7, #0]
 8001d7e:	681a      	ldr	r2, [r3, #0]
 8001d80:	2101      	movs	r1, #1
 8001d82:	69fb      	ldr	r3, [r7, #28]
 8001d84:	fa01 f303 	lsl.w	r3, r1, r3
 8001d88:	4013      	ands	r3, r2
 8001d8a:	61bb      	str	r3, [r7, #24]
 8001d8c:	69bb      	ldr	r3, [r7, #24]
 8001d8e:	2b00      	cmp	r3, #0
 8001d90:	d043      	beq.n	8001e1a <LL_GPIO_Init+0xc2>
 8001d92:	683b      	ldr	r3, [r7, #0]
 8001d94:	685b      	ldr	r3, [r3, #4]
 8001d96:	2b01      	cmp	r3, #1
 8001d98:	d003      	beq.n	8001da2 <LL_GPIO_Init+0x4a>
 8001d9a:	683b      	ldr	r3, [r7, #0]
 8001d9c:	685b      	ldr	r3, [r3, #4]
 8001d9e:	2b02      	cmp	r3, #2
 8001da0:	d10e      	bne.n	8001dc0 <LL_GPIO_Init+0x68>
 8001da2:	683b      	ldr	r3, [r7, #0]
 8001da4:	689b      	ldr	r3, [r3, #8]
 8001da6:	461a      	mov	r2, r3
 8001da8:	69b9      	ldr	r1, [r7, #24]
 8001daa:	6878      	ldr	r0, [r7, #4]
 8001dac:	f7ff ff16 	bl	8001bdc <LL_GPIO_SetPinSpeed>
 8001db0:	683b      	ldr	r3, [r7, #0]
 8001db2:	6819      	ldr	r1, [r3, #0]
 8001db4:	683b      	ldr	r3, [r7, #0]
 8001db6:	68db      	ldr	r3, [r3, #12]
 8001db8:	461a      	mov	r2, r3
 8001dba:	6878      	ldr	r0, [r7, #4]
 8001dbc:	f7ff fef6 	bl	8001bac <LL_GPIO_SetPinOutputType>
 8001dc0:	683b      	ldr	r3, [r7, #0]
 8001dc2:	691b      	ldr	r3, [r3, #16]
 8001dc4:	461a      	mov	r2, r3
 8001dc6:	69b9      	ldr	r1, [r7, #24]
 8001dc8:	6878      	ldr	r0, [r7, #4]
 8001dca:	f7ff ff36 	bl	8001c3a <LL_GPIO_SetPinPull>
 8001dce:	683b      	ldr	r3, [r7, #0]
 8001dd0:	685b      	ldr	r3, [r3, #4]
 8001dd2:	2b02      	cmp	r3, #2
 8001dd4:	d11a      	bne.n	8001e0c <LL_GPIO_Init+0xb4>
 8001dd6:	69bb      	ldr	r3, [r7, #24]
 8001dd8:	60fb      	str	r3, [r7, #12]
 8001dda:	68fb      	ldr	r3, [r7, #12]
 8001ddc:	fa93 f3a3 	rbit	r3, r3
 8001de0:	60bb      	str	r3, [r7, #8]
 8001de2:	68bb      	ldr	r3, [r7, #8]
 8001de4:	fab3 f383 	clz	r3, r3
 8001de8:	b2db      	uxtb	r3, r3
 8001dea:	2b07      	cmp	r3, #7
 8001dec:	d807      	bhi.n	8001dfe <LL_GPIO_Init+0xa6>
 8001dee:	683b      	ldr	r3, [r7, #0]
 8001df0:	695b      	ldr	r3, [r3, #20]
 8001df2:	461a      	mov	r2, r3
 8001df4:	69b9      	ldr	r1, [r7, #24]
 8001df6:	6878      	ldr	r0, [r7, #4]
 8001df8:	f7ff ff4e 	bl	8001c98 <LL_GPIO_SetAFPin_0_7>
 8001dfc:	e006      	b.n	8001e0c <LL_GPIO_Init+0xb4>
 8001dfe:	683b      	ldr	r3, [r7, #0]
 8001e00:	695b      	ldr	r3, [r3, #20]
 8001e02:	461a      	mov	r2, r3
 8001e04:	69b9      	ldr	r1, [r7, #24]
 8001e06:	6878      	ldr	r0, [r7, #4]
 8001e08:	f7ff ff75 	bl	8001cf6 <LL_GPIO_SetAFPin_8_15>
 8001e0c:	683b      	ldr	r3, [r7, #0]
 8001e0e:	685b      	ldr	r3, [r3, #4]
 8001e10:	461a      	mov	r2, r3
 8001e12:	69b9      	ldr	r1, [r7, #24]
 8001e14:	6878      	ldr	r0, [r7, #4]
 8001e16:	f7ff fe9a 	bl	8001b4e <LL_GPIO_SetPinMode>
 8001e1a:	69fb      	ldr	r3, [r7, #28]
 8001e1c:	3301      	adds	r3, #1
 8001e1e:	61fb      	str	r3, [r7, #28]
 8001e20:	683b      	ldr	r3, [r7, #0]
 8001e22:	681a      	ldr	r2, [r3, #0]
 8001e24:	69fb      	ldr	r3, [r7, #28]
 8001e26:	fa22 f303 	lsr.w	r3, r2, r3
 8001e2a:	2b00      	cmp	r3, #0
 8001e2c:	d1a6      	bne.n	8001d7c <LL_GPIO_Init+0x24>
 8001e2e:	2300      	movs	r3, #0
 8001e30:	4618      	mov	r0, r3
 8001e32:	3720      	adds	r7, #32
 8001e34:	46bd      	mov	sp, r7
 8001e36:	bd80      	pop	{r7, pc}

08001e38 <LL_RCC_HSI_IsReady>:
 8001e38:	b480      	push	{r7}
 8001e3a:	af00      	add	r7, sp, #0
 8001e3c:	4b06      	ldr	r3, [pc, #24]	; (8001e58 <LL_RCC_HSI_IsReady+0x20>)
 8001e3e:	681b      	ldr	r3, [r3, #0]
 8001e40:	f003 0302 	and.w	r3, r3, #2
 8001e44:	2b02      	cmp	r3, #2
 8001e46:	bf0c      	ite	eq
 8001e48:	2301      	moveq	r3, #1
 8001e4a:	2300      	movne	r3, #0
 8001e4c:	b2db      	uxtb	r3, r3
 8001e4e:	4618      	mov	r0, r3
 8001e50:	46bd      	mov	sp, r7
 8001e52:	f85d 7b04 	ldr.w	r7, [sp], #4
 8001e56:	4770      	bx	lr
 8001e58:	40021000 	.word	0x40021000

08001e5c <LL_RCC_LSE_IsReady>:
 8001e5c:	b480      	push	{r7}
 8001e5e:	af00      	add	r7, sp, #0
 8001e60:	4b06      	ldr	r3, [pc, #24]	; (8001e7c <LL_RCC_LSE_IsReady+0x20>)
 8001e62:	6a1b      	ldr	r3, [r3, #32]
 8001e64:	f003 0302 	and.w	r3, r3, #2
 8001e68:	2b02      	cmp	r3, #2
 8001e6a:	bf0c      	ite	eq
 8001e6c:	2301      	moveq	r3, #1
 8001e6e:	2300      	movne	r3, #0
 8001e70:	b2db      	uxtb	r3, r3
 8001e72:	4618      	mov	r0, r3
 8001e74:	46bd      	mov	sp, r7
 8001e76:	f85d 7b04 	ldr.w	r7, [sp], #4
 8001e7a:	4770      	bx	lr
 8001e7c:	40021000 	.word	0x40021000

08001e80 <LL_RCC_GetSysClkSource>:
 8001e80:	b480      	push	{r7}
 8001e82:	af00      	add	r7, sp, #0
 8001e84:	4b04      	ldr	r3, [pc, #16]	; (8001e98 <LL_RCC_GetSysClkSource+0x18>)
 8001e86:	685b      	ldr	r3, [r3, #4]
 8001e88:	f003 030c 	and.w	r3, r3, #12
 8001e8c:	4618      	mov	r0, r3
 8001e8e:	46bd      	mov	sp, r7
 8001e90:	f85d 7b04 	ldr.w	r7, [sp], #4
 8001e94:	4770      	bx	lr
 8001e96:	bf00      	nop
 8001e98:	40021000 	.word	0x40021000

08001e9c <LL_RCC_GetAHBPrescaler>:
 8001e9c:	b480      	push	{r7}
 8001e9e:	af00      	add	r7, sp, #0
 8001ea0:	4b04      	ldr	r3, [pc, #16]	; (8001eb4 <LL_RCC_GetAHBPrescaler+0x18>)
 8001ea2:	685b      	ldr	r3, [r3, #4]
 8001ea4:	f003 03f0 	and.w	r3, r3, #240	; 0xf0
 8001ea8:	4618      	mov	r0, r3
 8001eaa:	46bd      	mov	sp, r7
 8001eac:	f85d 7b04 	ldr.w	r7, [sp], #4
 8001eb0:	4770      	bx	lr
 8001eb2:	bf00      	nop
 8001eb4:	40021000 	.word	0x40021000

08001eb8 <LL_RCC_GetAPB1Prescaler>:
 8001eb8:	b480      	push	{r7}
 8001eba:	af00      	add	r7, sp, #0
 8001ebc:	4b04      	ldr	r3, [pc, #16]	; (8001ed0 <LL_RCC_GetAPB1Prescaler+0x18>)
 8001ebe:	685b      	ldr	r3, [r3, #4]
 8001ec0:	f403 63e0 	and.w	r3, r3, #1792	; 0x700
 8001ec4:	4618      	mov	r0, r3
 8001ec6:	46bd      	mov	sp, r7
 8001ec8:	f85d 7b04 	ldr.w	r7, [sp], #4
 8001ecc:	4770      	bx	lr
 8001ece:	bf00      	nop
 8001ed0:	40021000 	.word	0x40021000

08001ed4 <LL_RCC_GetAPB2Prescaler>:
 8001ed4:	b480      	push	{r7}
 8001ed6:	af00      	add	r7, sp, #0
 8001ed8:	4b04      	ldr	r3, [pc, #16]	; (8001eec <LL_RCC_GetAPB2Prescaler+0x18>)
 8001eda:	685b      	ldr	r3, [r3, #4]
 8001edc:	f403 5360 	and.w	r3, r3, #14336	; 0x3800
 8001ee0:	4618      	mov	r0, r3
 8001ee2:	46bd      	mov	sp, r7
 8001ee4:	f85d 7b04 	ldr.w	r7, [sp], #4
 8001ee8:	4770      	bx	lr
 8001eea:	bf00      	nop
 8001eec:	40021000 	.word	0x40021000

08001ef0 <LL_RCC_GetUSARTClockSource>:
 8001ef0:	b480      	push	{r7}
 8001ef2:	b083      	sub	sp, #12
 8001ef4:	af00      	add	r7, sp, #0
 8001ef6:	6078      	str	r0, [r7, #4]
 8001ef8:	4b07      	ldr	r3, [pc, #28]	; (8001f18 <LL_RCC_GetUSARTClockSource+0x28>)
 8001efa:	6b1a      	ldr	r2, [r3, #48]	; 0x30
 8001efc:	2103      	movs	r1, #3
 8001efe:	687b      	ldr	r3, [r7, #4]
 8001f00:	fa01 f303 	lsl.w	r3, r1, r3
 8001f04:	401a      	ands	r2, r3
 8001f06:	687b      	ldr	r3, [r7, #4]
 8001f08:	061b      	lsls	r3, r3, #24
 8001f0a:	4313      	orrs	r3, r2
 8001f0c:	4618      	mov	r0, r3
 8001f0e:	370c      	adds	r7, #12
 8001f10:	46bd      	mov	sp, r7
 8001f12:	f85d 7b04 	ldr.w	r7, [sp], #4
 8001f16:	4770      	bx	lr
 8001f18:	40021000 	.word	0x40021000

08001f1c <LL_RCC_PLL_GetMainSource>:
 8001f1c:	b480      	push	{r7}
 8001f1e:	af00      	add	r7, sp, #0
 8001f20:	4b04      	ldr	r3, [pc, #16]	; (8001f34 <LL_RCC_PLL_GetMainSource+0x18>)
 8001f22:	685b      	ldr	r3, [r3, #4]
 8001f24:	f403 3380 	and.w	r3, r3, #65536	; 0x10000
 8001f28:	4618      	mov	r0, r3
 8001f2a:	46bd      	mov	sp, r7
 8001f2c:	f85d 7b04 	ldr.w	r7, [sp], #4
 8001f30:	4770      	bx	lr
 8001f32:	bf00      	nop
 8001f34:	40021000 	.word	0x40021000

08001f38 <LL_RCC_PLL_GetMultiplicator>:
 8001f38:	b480      	push	{r7}
 8001f3a:	af00      	add	r7, sp, #0
 8001f3c:	4b04      	ldr	r3, [pc, #16]	; (8001f50 <LL_RCC_PLL_GetMultiplicator+0x18>)
 8001f3e:	685b      	ldr	r3, [r3, #4]
 8001f40:	f403 1370 	and.w	r3, r3, #3932160	; 0x3c0000
 8001f44:	4618      	mov	r0, r3
 8001f46:	46bd      	mov	sp, r7
 8001f48:	f85d 7b04 	ldr.w	r7, [sp], #4
 8001f4c:	4770      	bx	lr
 8001f4e:	bf00      	nop
 8001f50:	40021000 	.word	0x40021000

08001f54 <LL_RCC_PLL_GetPrediv>:
 8001f54:	b480      	push	{r7}
 8001f56:	af00      	add	r7, sp, #0
 8001f58:	4b04      	ldr	r3, [pc, #16]	; (8001f6c <LL_RCC_PLL_GetPrediv+0x18>)
 8001f5a:	6adb      	ldr	r3, [r3, #44]	; 0x2c
 8001f5c:	f003 030f 	and.w	r3, r3, #15
 8001f60:	4618      	mov	r0, r3
 8001f62:	46bd      	mov	sp, r7
 8001f64:	f85d 7b04 	ldr.w	r7, [sp], #4
 8001f68:	4770      	bx	lr
 8001f6a:	bf00      	nop
 8001f6c:	40021000 	.word	0x40021000

08001f70 <LL_RCC_GetSystemClocksFreq>:
 8001f70:	b580      	push	{r7, lr}
 8001f72:	b082      	sub	sp, #8
 8001f74:	af00      	add	r7, sp, #0
 8001f76:	6078      	str	r0, [r7, #4]
 8001f78:	f000 f864 	bl	8002044 <RCC_GetSystemClockFreq>
 8001f7c:	4602      	mov	r2, r0
 8001f7e:	687b      	ldr	r3, [r7, #4]
 8001f80:	601a      	str	r2, [r3, #0]
 8001f82:	687b      	ldr	r3, [r7, #4]
 8001f84:	681b      	ldr	r3, [r3, #0]
 8001f86:	4618      	mov	r0, r3
 8001f88:	f000 f882 	bl	8002090 <RCC_GetHCLKClockFreq>
 8001f8c:	4602      	mov	r2, r0
 8001f8e:	687b      	ldr	r3, [r7, #4]
 8001f90:	605a      	str	r2, [r3, #4]
 8001f92:	687b      	ldr	r3, [r7, #4]
 8001f94:	685b      	ldr	r3, [r3, #4]
 8001f96:	4618      	mov	r0, r3
 8001f98:	f000 f890 	bl	80020bc <RCC_GetPCLK1ClockFreq>
 8001f9c:	4602      	mov	r2, r0
 8001f9e:	687b      	ldr	r3, [r7, #4]
 8001fa0:	609a      	str	r2, [r3, #8]
 8001fa2:	687b      	ldr	r3, [r7, #4]
 8001fa4:	685b      	ldr	r3, [r3, #4]
 8001fa6:	4618      	mov	r0, r3
 8001fa8:	f000 f89c 	bl	80020e4 <RCC_GetPCLK2ClockFreq>
 8001fac:	4602      	mov	r2, r0
 8001fae:	687b      	ldr	r3, [r7, #4]
 8001fb0:	60da      	str	r2, [r3, #12]
 8001fb2:	bf00      	nop
 8001fb4:	3708      	adds	r7, #8
 8001fb6:	46bd      	mov	sp, r7
 8001fb8:	bd80      	pop	{r7, pc}
	...

08001fbc <LL_RCC_GetUSARTClockFreq>:
 8001fbc:	b580      	push	{r7, lr}
 8001fbe:	b084      	sub	sp, #16
 8001fc0:	af00      	add	r7, sp, #0
 8001fc2:	6078      	str	r0, [r7, #4]
 8001fc4:	2300      	movs	r3, #0
 8001fc6:	60fb      	str	r3, [r7, #12]
 8001fc8:	687b      	ldr	r3, [r7, #4]
 8001fca:	2b00      	cmp	r3, #0
 8001fcc:	d12d      	bne.n	800202a <LL_RCC_GetUSARTClockFreq+0x6e>
 8001fce:	6878      	ldr	r0, [r7, #4]
 8001fd0:	f7ff ff8e 	bl	8001ef0 <LL_RCC_GetUSARTClockSource>
 8001fd4:	4603      	mov	r3, r0
 8001fd6:	2b03      	cmp	r3, #3
 8001fd8:	d00a      	beq.n	8001ff0 <LL_RCC_GetUSARTClockFreq+0x34>
 8001fda:	2b03      	cmp	r3, #3
 8001fdc:	d819      	bhi.n	8002012 <LL_RCC_GetUSARTClockFreq+0x56>
 8001fde:	2b01      	cmp	r3, #1
 8001fe0:	d002      	beq.n	8001fe8 <LL_RCC_GetUSARTClockFreq+0x2c>
 8001fe2:	2b02      	cmp	r3, #2
 8001fe4:	d00c      	beq.n	8002000 <LL_RCC_GetUSARTClockFreq+0x44>
 8001fe6:	e014      	b.n	8002012 <LL_RCC_GetUSARTClockFreq+0x56>
 8001fe8:	f000 f82c 	bl	8002044 <RCC_GetSystemClockFreq>
 8001fec:	60f8      	str	r0, [r7, #12]
 8001fee:	e021      	b.n	8002034 <LL_RCC_GetUSARTClockFreq+0x78>
 8001ff0:	f7ff ff22 	bl	8001e38 <LL_RCC_HSI_IsReady>
 8001ff4:	4603      	mov	r3, r0
 8001ff6:	2b00      	cmp	r3, #0
 8001ff8:	d019      	beq.n	800202e <LL_RCC_GetUSARTClockFreq+0x72>
 8001ffa:	4b11      	ldr	r3, [pc, #68]	; (8002040 <LL_RCC_GetUSARTClockFreq+0x84>)
 8001ffc:	60fb      	str	r3, [r7, #12]
 8001ffe:	e016      	b.n	800202e <LL_RCC_GetUSARTClockFreq+0x72>
 8002000:	f7ff ff2c 	bl	8001e5c <LL_RCC_LSE_IsReady>
 8002004:	4603      	mov	r3, r0
 8002006:	2b00      	cmp	r3, #0
 8002008:	d013      	beq.n	8002032 <LL_RCC_GetUSARTClockFreq+0x76>
 800200a:	f44f 4300 	mov.w	r3, #32768	; 0x8000
 800200e:	60fb      	str	r3, [r7, #12]
 8002010:	e00f      	b.n	8002032 <LL_RCC_GetUSARTClockFreq+0x76>
 8002012:	f000 f817 	bl	8002044 <RCC_GetSystemClockFreq>
 8002016:	4603      	mov	r3, r0
 8002018:	4618      	mov	r0, r3
 800201a:	f000 f839 	bl	8002090 <RCC_GetHCLKClockFreq>
 800201e:	4603      	mov	r3, r0
 8002020:	4618      	mov	r0, r3
 8002022:	f000 f84b 	bl	80020bc <RCC_GetPCLK1ClockFreq>
 8002026:	60f8      	str	r0, [r7, #12]
 8002028:	e004      	b.n	8002034 <LL_RCC_GetUSARTClockFreq+0x78>
 800202a:	bf00      	nop
 800202c:	e002      	b.n	8002034 <LL_RCC_GetUSARTClockFreq+0x78>
 800202e:	bf00      	nop
 8002030:	e000      	b.n	8002034 <LL_RCC_GetUSARTClockFreq+0x78>
 8002032:	bf00      	nop
 8002034:	68fb      	ldr	r3, [r7, #12]
 8002036:	4618      	mov	r0, r3
 8002038:	3710      	adds	r7, #16
 800203a:	46bd      	mov	sp, r7
 800203c:	bd80      	pop	{r7, pc}
 800203e:	bf00      	nop
 8002040:	007a1200 	.word	0x007a1200

08002044 <RCC_GetSystemClockFreq>:
 8002044:	b580      	push	{r7, lr}
 8002046:	b082      	sub	sp, #8
 8002048:	af00      	add	r7, sp, #0
 800204a:	2300      	movs	r3, #0
 800204c:	607b      	str	r3, [r7, #4]
 800204e:	f7ff ff17 	bl	8001e80 <LL_RCC_GetSysClkSource>
 8002052:	4603      	mov	r3, r0
 8002054:	2b08      	cmp	r3, #8
 8002056:	d00c      	beq.n	8002072 <RCC_GetSystemClockFreq+0x2e>
 8002058:	2b08      	cmp	r3, #8
 800205a:	d80e      	bhi.n	800207a <RCC_GetSystemClockFreq+0x36>
 800205c:	2b00      	cmp	r3, #0
 800205e:	d002      	beq.n	8002066 <RCC_GetSystemClockFreq+0x22>
 8002060:	2b04      	cmp	r3, #4
 8002062:	d003      	beq.n	800206c <RCC_GetSystemClockFreq+0x28>
 8002064:	e009      	b.n	800207a <RCC_GetSystemClockFreq+0x36>
 8002066:	4b09      	ldr	r3, [pc, #36]	; (800208c <RCC_GetSystemClockFreq+0x48>)
 8002068:	607b      	str	r3, [r7, #4]
 800206a:	e009      	b.n	8002080 <RCC_GetSystemClockFreq+0x3c>
 800206c:	4b07      	ldr	r3, [pc, #28]	; (800208c <RCC_GetSystemClockFreq+0x48>)
 800206e:	607b      	str	r3, [r7, #4]
 8002070:	e006      	b.n	8002080 <RCC_GetSystemClockFreq+0x3c>
 8002072:	f000 f84b 	bl	800210c <RCC_PLL_GetFreqDomain_SYS>
 8002076:	6078      	str	r0, [r7, #4]
 8002078:	e002      	b.n	8002080 <RCC_GetSystemClockFreq+0x3c>
 800207a:	4b04      	ldr	r3, [pc, #16]	; (800208c <RCC_GetSystemClockFreq+0x48>)
 800207c:	607b      	str	r3, [r7, #4]
 800207e:	bf00      	nop
 8002080:	687b      	ldr	r3, [r7, #4]
 8002082:	4618      	mov	r0, r3
 8002084:	3708      	adds	r7, #8
 8002086:	46bd      	mov	sp, r7
 8002088:	bd80      	pop	{r7, pc}
 800208a:	bf00      	nop
 800208c:	007a1200 	.word	0x007a1200

08002090 <RCC_GetHCLKClockFreq>:
 8002090:	b580      	push	{r7, lr}
 8002092:	b082      	sub	sp, #8
 8002094:	af00      	add	r7, sp, #0
 8002096:	6078      	str	r0, [r7, #4]
 8002098:	f7ff ff00 	bl	8001e9c <LL_RCC_GetAHBPrescaler>
 800209c:	4603      	mov	r3, r0
 800209e:	091b      	lsrs	r3, r3, #4
 80020a0:	f003 030f 	and.w	r3, r3, #15
 80020a4:	4a04      	ldr	r2, [pc, #16]	; (80020b8 <RCC_GetHCLKClockFreq+0x28>)
 80020a6:	5cd3      	ldrb	r3, [r2, r3]
 80020a8:	461a      	mov	r2, r3
 80020aa:	687b      	ldr	r3, [r7, #4]
 80020ac:	40d3      	lsrs	r3, r2
 80020ae:	4618      	mov	r0, r3
 80020b0:	3708      	adds	r7, #8
 80020b2:	46bd      	mov	sp, r7
 80020b4:	bd80      	pop	{r7, pc}
 80020b6:	bf00      	nop
 80020b8:	08002d98 	.word	0x08002d98

080020bc <RCC_GetPCLK1ClockFreq>:
 80020bc:	b580      	push	{r7, lr}
 80020be:	b082      	sub	sp, #8
 80020c0:	af00      	add	r7, sp, #0
 80020c2:	6078      	str	r0, [r7, #4]
 80020c4:	f7ff fef8 	bl	8001eb8 <LL_RCC_GetAPB1Prescaler>
 80020c8:	4603      	mov	r3, r0
 80020ca:	0a1b      	lsrs	r3, r3, #8
 80020cc:	4a04      	ldr	r2, [pc, #16]	; (80020e0 <RCC_GetPCLK1ClockFreq+0x24>)
 80020ce:	5cd3      	ldrb	r3, [r2, r3]
 80020d0:	461a      	mov	r2, r3
 80020d2:	687b      	ldr	r3, [r7, #4]
 80020d4:	40d3      	lsrs	r3, r2
 80020d6:	4618      	mov	r0, r3
 80020d8:	3708      	adds	r7, #8
 80020da:	46bd      	mov	sp, r7
 80020dc:	bd80      	pop	{r7, pc}
 80020de:	bf00      	nop
 80020e0:	08002da8 	.word	0x08002da8

080020e4 <RCC_GetPCLK2ClockFreq>:
 80020e4:	b580      	push	{r7, lr}
 80020e6:	b082      	sub	sp, #8
 80020e8:	af00      	add	r7, sp, #0
 80020ea:	6078      	str	r0, [r7, #4]
 80020ec:	f7ff fef2 	bl	8001ed4 <LL_RCC_GetAPB2Prescaler>
 80020f0:	4603      	mov	r3, r0
 80020f2:	0adb      	lsrs	r3, r3, #11
 80020f4:	4a04      	ldr	r2, [pc, #16]	; (8002108 <RCC_GetPCLK2ClockFreq+0x24>)
 80020f6:	5cd3      	ldrb	r3, [r2, r3]
 80020f8:	461a      	mov	r2, r3
 80020fa:	687b      	ldr	r3, [r7, #4]
 80020fc:	40d3      	lsrs	r3, r2
 80020fe:	4618      	mov	r0, r3
 8002100:	3708      	adds	r7, #8
 8002102:	46bd      	mov	sp, r7
 8002104:	bd80      	pop	{r7, pc}
 8002106:	bf00      	nop
 8002108:	08002da8 	.word	0x08002da8

0800210c <RCC_PLL_GetFreqDomain_SYS>:
 800210c:	b590      	push	{r4, r7, lr}
 800210e:	b085      	sub	sp, #20
 8002110:	af00      	add	r7, sp, #0
 8002112:	2300      	movs	r3, #0
 8002114:	60fb      	str	r3, [r7, #12]
 8002116:	2300      	movs	r3, #0
 8002118:	60bb      	str	r3, [r7, #8]
 800211a:	f7ff feff 	bl	8001f1c <LL_RCC_PLL_GetMainSource>
 800211e:	60b8      	str	r0, [r7, #8]
 8002120:	68bb      	ldr	r3, [r7, #8]
 8002122:	2b00      	cmp	r3, #0
 8002124:	d004      	beq.n	8002130 <RCC_PLL_GetFreqDomain_SYS+0x24>
 8002126:	68bb      	ldr	r3, [r7, #8]
 8002128:	f5b3 3f80 	cmp.w	r3, #65536	; 0x10000
 800212c:	d003      	beq.n	8002136 <RCC_PLL_GetFreqDomain_SYS+0x2a>
 800212e:	e005      	b.n	800213c <RCC_PLL_GetFreqDomain_SYS+0x30>
 8002130:	4b13      	ldr	r3, [pc, #76]	; (8002180 <RCC_PLL_GetFreqDomain_SYS+0x74>)
 8002132:	60fb      	str	r3, [r7, #12]
 8002134:	e005      	b.n	8002142 <RCC_PLL_GetFreqDomain_SYS+0x36>
 8002136:	4b13      	ldr	r3, [pc, #76]	; (8002184 <RCC_PLL_GetFreqDomain_SYS+0x78>)
 8002138:	60fb      	str	r3, [r7, #12]
 800213a:	e002      	b.n	8002142 <RCC_PLL_GetFreqDomain_SYS+0x36>
 800213c:	4b10      	ldr	r3, [pc, #64]	; (8002180 <RCC_PLL_GetFreqDomain_SYS+0x74>)
 800213e:	60fb      	str	r3, [r7, #12]
 8002140:	bf00      	nop
 8002142:	f7ff ff07 	bl	8001f54 <LL_RCC_PLL_GetPrediv>
 8002146:	4603      	mov	r3, r0
 8002148:	3301      	adds	r3, #1
 800214a:	68fa      	ldr	r2, [r7, #12]
 800214c:	fbb2 f4f3 	udiv	r4, r2, r3
 8002150:	f7ff fef2 	bl	8001f38 <LL_RCC_PLL_GetMultiplicator>
 8002154:	4603      	mov	r3, r0
 8002156:	f403 1370 	and.w	r3, r3, #3932160	; 0x3c0000
 800215a:	f44f 1270 	mov.w	r2, #3932160	; 0x3c0000
 800215e:	607a      	str	r2, [r7, #4]
 8002160:	687a      	ldr	r2, [r7, #4]
 8002162:	fa92 f2a2 	rbit	r2, r2
 8002166:	603a      	str	r2, [r7, #0]
 8002168:	683a      	ldr	r2, [r7, #0]
 800216a:	fab2 f282 	clz	r2, r2
 800216e:	b2d2      	uxtb	r2, r2
 8002170:	40d3      	lsrs	r3, r2
 8002172:	3302      	adds	r3, #2
 8002174:	fb03 f304 	mul.w	r3, r3, r4
 8002178:	4618      	mov	r0, r3
 800217a:	3714      	adds	r7, #20
 800217c:	46bd      	mov	sp, r7
 800217e:	bd90      	pop	{r4, r7, pc}
 8002180:	003d0900 	.word	0x003d0900
 8002184:	007a1200 	.word	0x007a1200

08002188 <LL_TIM_SetPrescaler>:
 8002188:	b480      	push	{r7}
 800218a:	b083      	sub	sp, #12
 800218c:	af00      	add	r7, sp, #0
 800218e:	6078      	str	r0, [r7, #4]
 8002190:	6039      	str	r1, [r7, #0]
 8002192:	687b      	ldr	r3, [r7, #4]
 8002194:	683a      	ldr	r2, [r7, #0]
 8002196:	629a      	str	r2, [r3, #40]	; 0x28
 8002198:	bf00      	nop
 800219a:	370c      	adds	r7, #12
 800219c:	46bd      	mov	sp, r7
 800219e:	f85d 7b04 	ldr.w	r7, [sp], #4
 80021a2:	4770      	bx	lr

080021a4 <LL_TIM_SetAutoReload>:
 80021a4:	b480      	push	{r7}
 80021a6:	b083      	sub	sp, #12
 80021a8:	af00      	add	r7, sp, #0
 80021aa:	6078      	str	r0, [r7, #4]
 80021ac:	6039      	str	r1, [r7, #0]
 80021ae:	687b      	ldr	r3, [r7, #4]
 80021b0:	683a      	ldr	r2, [r7, #0]
 80021b2:	62da      	str	r2, [r3, #44]	; 0x2c
 80021b4:	bf00      	nop
 80021b6:	370c      	adds	r7, #12
 80021b8:	46bd      	mov	sp, r7
 80021ba:	f85d 7b04 	ldr.w	r7, [sp], #4
 80021be:	4770      	bx	lr

080021c0 <LL_TIM_SetRepetitionCounter>:
 80021c0:	b480      	push	{r7}
 80021c2:	b083      	sub	sp, #12
 80021c4:	af00      	add	r7, sp, #0
 80021c6:	6078      	str	r0, [r7, #4]
 80021c8:	6039      	str	r1, [r7, #0]
 80021ca:	687b      	ldr	r3, [r7, #4]
 80021cc:	683a      	ldr	r2, [r7, #0]
 80021ce:	631a      	str	r2, [r3, #48]	; 0x30
 80021d0:	bf00      	nop
 80021d2:	370c      	adds	r7, #12
 80021d4:	46bd      	mov	sp, r7
 80021d6:	f85d 7b04 	ldr.w	r7, [sp], #4
 80021da:	4770      	bx	lr

080021dc <LL_TIM_OC_SetCompareCH1>:
 80021dc:	b480      	push	{r7}
 80021de:	b083      	sub	sp, #12
 80021e0:	af00      	add	r7, sp, #0
 80021e2:	6078      	str	r0, [r7, #4]
 80021e4:	6039      	str	r1, [r7, #0]
 80021e6:	687b      	ldr	r3, [r7, #4]
 80021e8:	683a      	ldr	r2, [r7, #0]
 80021ea:	635a      	str	r2, [r3, #52]	; 0x34
 80021ec:	bf00      	nop
 80021ee:	370c      	adds	r7, #12
 80021f0:	46bd      	mov	sp, r7
 80021f2:	f85d 7b04 	ldr.w	r7, [sp], #4
 80021f6:	4770      	bx	lr

080021f8 <LL_TIM_OC_SetCompareCH2>:
 80021f8:	b480      	push	{r7}
 80021fa:	b083      	sub	sp, #12
 80021fc:	af00      	add	r7, sp, #0
 80021fe:	6078      	str	r0, [r7, #4]
 8002200:	6039      	str	r1, [r7, #0]
 8002202:	687b      	ldr	r3, [r7, #4]
 8002204:	683a      	ldr	r2, [r7, #0]
 8002206:	639a      	str	r2, [r3, #56]	; 0x38
 8002208:	bf00      	nop
 800220a:	370c      	adds	r7, #12
 800220c:	46bd      	mov	sp, r7
 800220e:	f85d 7b04 	ldr.w	r7, [sp], #4
 8002212:	4770      	bx	lr

08002214 <LL_TIM_OC_SetCompareCH3>:
 8002214:	b480      	push	{r7}
 8002216:	b083      	sub	sp, #12
 8002218:	af00      	add	r7, sp, #0
 800221a:	6078      	str	r0, [r7, #4]
 800221c:	6039      	str	r1, [r7, #0]
 800221e:	687b      	ldr	r3, [r7, #4]
 8002220:	683a      	ldr	r2, [r7, #0]
 8002222:	63da      	str	r2, [r3, #60]	; 0x3c
 8002224:	bf00      	nop
 8002226:	370c      	adds	r7, #12
 8002228:	46bd      	mov	sp, r7
 800222a:	f85d 7b04 	ldr.w	r7, [sp], #4
 800222e:	4770      	bx	lr

08002230 <LL_TIM_OC_SetCompareCH4>:
 8002230:	b480      	push	{r7}
 8002232:	b083      	sub	sp, #12
 8002234:	af00      	add	r7, sp, #0
 8002236:	6078      	str	r0, [r7, #4]
 8002238:	6039      	str	r1, [r7, #0]
 800223a:	687b      	ldr	r3, [r7, #4]
 800223c:	683a      	ldr	r2, [r7, #0]
 800223e:	641a      	str	r2, [r3, #64]	; 0x40
 8002240:	bf00      	nop
 8002242:	370c      	adds	r7, #12
 8002244:	46bd      	mov	sp, r7
 8002246:	f85d 7b04 	ldr.w	r7, [sp], #4
 800224a:	4770      	bx	lr

0800224c <LL_TIM_OC_SetCompareCH5>:
 800224c:	b480      	push	{r7}
 800224e:	b083      	sub	sp, #12
 8002250:	af00      	add	r7, sp, #0
 8002252:	6078      	str	r0, [r7, #4]
 8002254:	6039      	str	r1, [r7, #0]
 8002256:	687b      	ldr	r3, [r7, #4]
 8002258:	6d9b      	ldr	r3, [r3, #88]	; 0x58
 800225a:	687b      	ldr	r3, [r7, #4]
 800225c:	683a      	ldr	r2, [r7, #0]
 800225e:	659a      	str	r2, [r3, #88]	; 0x58
 8002260:	bf00      	nop
 8002262:	370c      	adds	r7, #12
 8002264:	46bd      	mov	sp, r7
 8002266:	f85d 7b04 	ldr.w	r7, [sp], #4
 800226a:	4770      	bx	lr

0800226c <LL_TIM_OC_SetCompareCH6>:
 800226c:	b480      	push	{r7}
 800226e:	b083      	sub	sp, #12
 8002270:	af00      	add	r7, sp, #0
 8002272:	6078      	str	r0, [r7, #4]
 8002274:	6039      	str	r1, [r7, #0]
 8002276:	687b      	ldr	r3, [r7, #4]
 8002278:	683a      	ldr	r2, [r7, #0]
 800227a:	65da      	str	r2, [r3, #92]	; 0x5c
 800227c:	bf00      	nop
 800227e:	370c      	adds	r7, #12
 8002280:	46bd      	mov	sp, r7
 8002282:	f85d 7b04 	ldr.w	r7, [sp], #4
 8002286:	4770      	bx	lr

08002288 <LL_TIM_GenerateEvent_UPDATE>:
 8002288:	b480      	push	{r7}
 800228a:	b083      	sub	sp, #12
 800228c:	af00      	add	r7, sp, #0
 800228e:	6078      	str	r0, [r7, #4]
 8002290:	687b      	ldr	r3, [r7, #4]
 8002292:	695b      	ldr	r3, [r3, #20]
 8002294:	f043 0201 	orr.w	r2, r3, #1
 8002298:	687b      	ldr	r3, [r7, #4]
 800229a:	615a      	str	r2, [r3, #20]
 800229c:	bf00      	nop
 800229e:	370c      	adds	r7, #12
 80022a0:	46bd      	mov	sp, r7
 80022a2:	f85d 7b04 	ldr.w	r7, [sp], #4
 80022a6:	4770      	bx	lr

080022a8 <LL_TIM_Init>:
 80022a8:	b580      	push	{r7, lr}
 80022aa:	b084      	sub	sp, #16
 80022ac:	af00      	add	r7, sp, #0
 80022ae:	6078      	str	r0, [r7, #4]
 80022b0:	6039      	str	r1, [r7, #0]
 80022b2:	687b      	ldr	r3, [r7, #4]
 80022b4:	681b      	ldr	r3, [r3, #0]
 80022b6:	60fb      	str	r3, [r7, #12]
 80022b8:	687b      	ldr	r3, [r7, #4]
 80022ba:	4a2f      	ldr	r2, [pc, #188]	; (8002378 <LL_TIM_Init+0xd0>)
 80022bc:	4293      	cmp	r3, r2
 80022be:	d007      	beq.n	80022d0 <LL_TIM_Init+0x28>
 80022c0:	687b      	ldr	r3, [r7, #4]
 80022c2:	f1b3 4f80 	cmp.w	r3, #1073741824	; 0x40000000
 80022c6:	d003      	beq.n	80022d0 <LL_TIM_Init+0x28>
 80022c8:	687b      	ldr	r3, [r7, #4]
 80022ca:	4a2c      	ldr	r2, [pc, #176]	; (800237c <LL_TIM_Init+0xd4>)
 80022cc:	4293      	cmp	r3, r2
 80022ce:	d106      	bne.n	80022de <LL_TIM_Init+0x36>
 80022d0:	68fb      	ldr	r3, [r7, #12]
 80022d2:	f023 0270 	bic.w	r2, r3, #112	; 0x70
 80022d6:	683b      	ldr	r3, [r7, #0]
 80022d8:	685b      	ldr	r3, [r3, #4]
 80022da:	4313      	orrs	r3, r2
 80022dc:	60fb      	str	r3, [r7, #12]
 80022de:	687b      	ldr	r3, [r7, #4]
 80022e0:	4a25      	ldr	r2, [pc, #148]	; (8002378 <LL_TIM_Init+0xd0>)
 80022e2:	4293      	cmp	r3, r2
 80022e4:	d013      	beq.n	800230e <LL_TIM_Init+0x66>
 80022e6:	687b      	ldr	r3, [r7, #4]
 80022e8:	f1b3 4f80 	cmp.w	r3, #1073741824	; 0x40000000
 80022ec:	d00f      	beq.n	800230e <LL_TIM_Init+0x66>
 80022ee:	687b      	ldr	r3, [r7, #4]
 80022f0:	4a22      	ldr	r2, [pc, #136]	; (800237c <LL_TIM_Init+0xd4>)
 80022f2:	4293      	cmp	r3, r2
 80022f4:	d00b      	beq.n	800230e <LL_TIM_Init+0x66>
 80022f6:	687b      	ldr	r3, [r7, #4]
 80022f8:	4a21      	ldr	r2, [pc, #132]	; (8002380 <LL_TIM_Init+0xd8>)
 80022fa:	4293      	cmp	r3, r2
 80022fc:	d007      	beq.n	800230e <LL_TIM_Init+0x66>
 80022fe:	687b      	ldr	r3, [r7, #4]
 8002300:	4a20      	ldr	r2, [pc, #128]	; (8002384 <LL_TIM_Init+0xdc>)
 8002302:	4293      	cmp	r3, r2
 8002304:	d003      	beq.n	800230e <LL_TIM_Init+0x66>
 8002306:	687b      	ldr	r3, [r7, #4]
 8002308:	4a1f      	ldr	r2, [pc, #124]	; (8002388 <LL_TIM_Init+0xe0>)
 800230a:	4293      	cmp	r3, r2
 800230c:	d106      	bne.n	800231c <LL_TIM_Init+0x74>
 800230e:	68fb      	ldr	r3, [r7, #12]
 8002310:	f423 7240 	bic.w	r2, r3, #768	; 0x300
 8002314:	683b      	ldr	r3, [r7, #0]
 8002316:	68db      	ldr	r3, [r3, #12]
 8002318:	4313      	orrs	r3, r2
 800231a:	60fb      	str	r3, [r7, #12]
 800231c:	687b      	ldr	r3, [r7, #4]
 800231e:	68fa      	ldr	r2, [r7, #12]
 8002320:	601a      	str	r2, [r3, #0]
 8002322:	683b      	ldr	r3, [r7, #0]
 8002324:	689b      	ldr	r3, [r3, #8]
 8002326:	4619      	mov	r1, r3
 8002328:	6878      	ldr	r0, [r7, #4]
 800232a:	f7ff ff3b 	bl	80021a4 <LL_TIM_SetAutoReload>
 800232e:	683b      	ldr	r3, [r7, #0]
 8002330:	881b      	ldrh	r3, [r3, #0]
 8002332:	4619      	mov	r1, r3
 8002334:	6878      	ldr	r0, [r7, #4]
 8002336:	f7ff ff27 	bl	8002188 <LL_TIM_SetPrescaler>
 800233a:	687b      	ldr	r3, [r7, #4]
 800233c:	4a0e      	ldr	r2, [pc, #56]	; (8002378 <LL_TIM_Init+0xd0>)
 800233e:	4293      	cmp	r3, r2
 8002340:	d00b      	beq.n	800235a <LL_TIM_Init+0xb2>
 8002342:	687b      	ldr	r3, [r7, #4]
 8002344:	4a0e      	ldr	r2, [pc, #56]	; (8002380 <LL_TIM_Init+0xd8>)
 8002346:	4293      	cmp	r3, r2
 8002348:	d007      	beq.n	800235a <LL_TIM_Init+0xb2>
 800234a:	687b      	ldr	r3, [r7, #4]
 800234c:	4a0d      	ldr	r2, [pc, #52]	; (8002384 <LL_TIM_Init+0xdc>)
 800234e:	4293      	cmp	r3, r2
 8002350:	d003      	beq.n	800235a <LL_TIM_Init+0xb2>
 8002352:	687b      	ldr	r3, [r7, #4]
 8002354:	4a0c      	ldr	r2, [pc, #48]	; (8002388 <LL_TIM_Init+0xe0>)
 8002356:	4293      	cmp	r3, r2
 8002358:	d105      	bne.n	8002366 <LL_TIM_Init+0xbe>
 800235a:	683b      	ldr	r3, [r7, #0]
 800235c:	691b      	ldr	r3, [r3, #16]
 800235e:	4619      	mov	r1, r3
 8002360:	6878      	ldr	r0, [r7, #4]
 8002362:	f7ff ff2d 	bl	80021c0 <LL_TIM_SetRepetitionCounter>
 8002366:	6878      	ldr	r0, [r7, #4]
 8002368:	f7ff ff8e 	bl	8002288 <LL_TIM_GenerateEvent_UPDATE>
 800236c:	2300      	movs	r3, #0
 800236e:	4618      	mov	r0, r3
 8002370:	3710      	adds	r7, #16
 8002372:	46bd      	mov	sp, r7
 8002374:	bd80      	pop	{r7, pc}
 8002376:	bf00      	nop
 8002378:	40012c00 	.word	0x40012c00
 800237c:	40000400 	.word	0x40000400
 8002380:	40014000 	.word	0x40014000
 8002384:	40014400 	.word	0x40014400
 8002388:	40014800 	.word	0x40014800

0800238c <LL_TIM_OC_Init>:
 800238c:	b580      	push	{r7, lr}
 800238e:	b086      	sub	sp, #24
 8002390:	af00      	add	r7, sp, #0
 8002392:	60f8      	str	r0, [r7, #12]
 8002394:	60b9      	str	r1, [r7, #8]
 8002396:	607a      	str	r2, [r7, #4]
 8002398:	2301      	movs	r3, #1
 800239a:	75fb      	strb	r3, [r7, #23]
 800239c:	68bb      	ldr	r3, [r7, #8]
 800239e:	f5b3 1f80 	cmp.w	r3, #1048576	; 0x100000
 80023a2:	d045      	beq.n	8002430 <LL_TIM_OC_Init+0xa4>
 80023a4:	68bb      	ldr	r3, [r7, #8]
 80023a6:	f5b3 1f80 	cmp.w	r3, #1048576	; 0x100000
 80023aa:	d848      	bhi.n	800243e <LL_TIM_OC_Init+0xb2>
 80023ac:	68bb      	ldr	r3, [r7, #8]
 80023ae:	f5b3 3f80 	cmp.w	r3, #65536	; 0x10000
 80023b2:	d036      	beq.n	8002422 <LL_TIM_OC_Init+0x96>
 80023b4:	68bb      	ldr	r3, [r7, #8]
 80023b6:	f5b3 3f80 	cmp.w	r3, #65536	; 0x10000
 80023ba:	d840      	bhi.n	800243e <LL_TIM_OC_Init+0xb2>
 80023bc:	68bb      	ldr	r3, [r7, #8]
 80023be:	f5b3 5f80 	cmp.w	r3, #4096	; 0x1000
 80023c2:	d027      	beq.n	8002414 <LL_TIM_OC_Init+0x88>
 80023c4:	68bb      	ldr	r3, [r7, #8]
 80023c6:	f5b3 5f80 	cmp.w	r3, #4096	; 0x1000
 80023ca:	d838      	bhi.n	800243e <LL_TIM_OC_Init+0xb2>
 80023cc:	68bb      	ldr	r3, [r7, #8]
 80023ce:	f5b3 7f80 	cmp.w	r3, #256	; 0x100
 80023d2:	d018      	beq.n	8002406 <LL_TIM_OC_Init+0x7a>
 80023d4:	68bb      	ldr	r3, [r7, #8]
 80023d6:	f5b3 7f80 	cmp.w	r3, #256	; 0x100
 80023da:	d830      	bhi.n	800243e <LL_TIM_OC_Init+0xb2>
 80023dc:	68bb      	ldr	r3, [r7, #8]
 80023de:	2b01      	cmp	r3, #1
 80023e0:	d003      	beq.n	80023ea <LL_TIM_OC_Init+0x5e>
 80023e2:	68bb      	ldr	r3, [r7, #8]
 80023e4:	2b10      	cmp	r3, #16
 80023e6:	d007      	beq.n	80023f8 <LL_TIM_OC_Init+0x6c>
 80023e8:	e029      	b.n	800243e <LL_TIM_OC_Init+0xb2>
 80023ea:	6879      	ldr	r1, [r7, #4]
 80023ec:	68f8      	ldr	r0, [r7, #12]
 80023ee:	f000 f82d 	bl	800244c <OC1Config>
 80023f2:	4603      	mov	r3, r0
 80023f4:	75fb      	strb	r3, [r7, #23]
 80023f6:	e023      	b.n	8002440 <LL_TIM_OC_Init+0xb4>
 80023f8:	6879      	ldr	r1, [r7, #4]
 80023fa:	68f8      	ldr	r0, [r7, #12]
 80023fc:	f000 f8a0 	bl	8002540 <OC2Config>
 8002400:	4603      	mov	r3, r0
 8002402:	75fb      	strb	r3, [r7, #23]
 8002404:	e01c      	b.n	8002440 <LL_TIM_OC_Init+0xb4>
 8002406:	6879      	ldr	r1, [r7, #4]
 8002408:	68f8      	ldr	r0, [r7, #12]
 800240a:	f000 f917 	bl	800263c <OC3Config>
 800240e:	4603      	mov	r3, r0
 8002410:	75fb      	strb	r3, [r7, #23]
 8002412:	e015      	b.n	8002440 <LL_TIM_OC_Init+0xb4>
 8002414:	6879      	ldr	r1, [r7, #4]
 8002416:	68f8      	ldr	r0, [r7, #12]
 8002418:	f000 f98e 	bl	8002738 <OC4Config>
 800241c:	4603      	mov	r3, r0
 800241e:	75fb      	strb	r3, [r7, #23]
 8002420:	e00e      	b.n	8002440 <LL_TIM_OC_Init+0xb4>
 8002422:	6879      	ldr	r1, [r7, #4]
 8002424:	68f8      	ldr	r0, [r7, #12]
 8002426:	f000 f9ed 	bl	8002804 <OC5Config>
 800242a:	4603      	mov	r3, r0
 800242c:	75fb      	strb	r3, [r7, #23]
 800242e:	e007      	b.n	8002440 <LL_TIM_OC_Init+0xb4>
 8002430:	6879      	ldr	r1, [r7, #4]
 8002432:	68f8      	ldr	r0, [r7, #12]
 8002434:	f000 fa44 	bl	80028c0 <OC6Config>
 8002438:	4603      	mov	r3, r0
 800243a:	75fb      	strb	r3, [r7, #23]
 800243c:	e000      	b.n	8002440 <LL_TIM_OC_Init+0xb4>
 800243e:	bf00      	nop
 8002440:	7dfb      	ldrb	r3, [r7, #23]
 8002442:	4618      	mov	r0, r3
 8002444:	3718      	adds	r7, #24
 8002446:	46bd      	mov	sp, r7
 8002448:	bd80      	pop	{r7, pc}
	...

0800244c <OC1Config>:
 800244c:	b580      	push	{r7, lr}
 800244e:	b086      	sub	sp, #24
 8002450:	af00      	add	r7, sp, #0
 8002452:	6078      	str	r0, [r7, #4]
 8002454:	6039      	str	r1, [r7, #0]
 8002456:	687b      	ldr	r3, [r7, #4]
 8002458:	6a1b      	ldr	r3, [r3, #32]
 800245a:	f023 0201 	bic.w	r2, r3, #1
 800245e:	687b      	ldr	r3, [r7, #4]
 8002460:	621a      	str	r2, [r3, #32]
 8002462:	687b      	ldr	r3, [r7, #4]
 8002464:	6a1b      	ldr	r3, [r3, #32]
 8002466:	617b      	str	r3, [r7, #20]
 8002468:	687b      	ldr	r3, [r7, #4]
 800246a:	685b      	ldr	r3, [r3, #4]
 800246c:	613b      	str	r3, [r7, #16]
 800246e:	687b      	ldr	r3, [r7, #4]
 8002470:	699b      	ldr	r3, [r3, #24]
 8002472:	60fb      	str	r3, [r7, #12]
 8002474:	68fb      	ldr	r3, [r7, #12]
 8002476:	f023 0303 	bic.w	r3, r3, #3
 800247a:	60fb      	str	r3, [r7, #12]
 800247c:	68fb      	ldr	r3, [r7, #12]
 800247e:	f423 3380 	bic.w	r3, r3, #65536	; 0x10000
 8002482:	f023 0370 	bic.w	r3, r3, #112	; 0x70
 8002486:	683a      	ldr	r2, [r7, #0]
 8002488:	6812      	ldr	r2, [r2, #0]
 800248a:	4313      	orrs	r3, r2
 800248c:	60fb      	str	r3, [r7, #12]
 800248e:	697b      	ldr	r3, [r7, #20]
 8002490:	f023 0202 	bic.w	r2, r3, #2
 8002494:	683b      	ldr	r3, [r7, #0]
 8002496:	691b      	ldr	r3, [r3, #16]
 8002498:	4313      	orrs	r3, r2
 800249a:	617b      	str	r3, [r7, #20]
 800249c:	697b      	ldr	r3, [r7, #20]
 800249e:	f023 0201 	bic.w	r2, r3, #1
 80024a2:	683b      	ldr	r3, [r7, #0]
 80024a4:	685b      	ldr	r3, [r3, #4]
 80024a6:	4313      	orrs	r3, r2
 80024a8:	617b      	str	r3, [r7, #20]
 80024aa:	687b      	ldr	r3, [r7, #4]
 80024ac:	4a20      	ldr	r2, [pc, #128]	; (8002530 <OC1Config+0xe4>)
 80024ae:	4293      	cmp	r3, r2
 80024b0:	d00b      	beq.n	80024ca <OC1Config+0x7e>
 80024b2:	687b      	ldr	r3, [r7, #4]
 80024b4:	4a1f      	ldr	r2, [pc, #124]	; (8002534 <OC1Config+0xe8>)
 80024b6:	4293      	cmp	r3, r2
 80024b8:	d007      	beq.n	80024ca <OC1Config+0x7e>
 80024ba:	687b      	ldr	r3, [r7, #4]
 80024bc:	4a1e      	ldr	r2, [pc, #120]	; (8002538 <OC1Config+0xec>)
 80024be:	4293      	cmp	r3, r2
 80024c0:	d003      	beq.n	80024ca <OC1Config+0x7e>
 80024c2:	687b      	ldr	r3, [r7, #4]
 80024c4:	4a1d      	ldr	r2, [pc, #116]	; (800253c <OC1Config+0xf0>)
 80024c6:	4293      	cmp	r3, r2
 80024c8:	d11e      	bne.n	8002508 <OC1Config+0xbc>
 80024ca:	697b      	ldr	r3, [r7, #20]
 80024cc:	f023 0208 	bic.w	r2, r3, #8
 80024d0:	683b      	ldr	r3, [r7, #0]
 80024d2:	695b      	ldr	r3, [r3, #20]
 80024d4:	009b      	lsls	r3, r3, #2
 80024d6:	4313      	orrs	r3, r2
 80024d8:	617b      	str	r3, [r7, #20]
 80024da:	697b      	ldr	r3, [r7, #20]
 80024dc:	f023 0204 	bic.w	r2, r3, #4
 80024e0:	683b      	ldr	r3, [r7, #0]
 80024e2:	689b      	ldr	r3, [r3, #8]
 80024e4:	009b      	lsls	r3, r3, #2
 80024e6:	4313      	orrs	r3, r2
 80024e8:	617b      	str	r3, [r7, #20]
 80024ea:	693b      	ldr	r3, [r7, #16]
 80024ec:	f423 7280 	bic.w	r2, r3, #256	; 0x100
 80024f0:	683b      	ldr	r3, [r7, #0]
 80024f2:	699b      	ldr	r3, [r3, #24]
 80024f4:	4313      	orrs	r3, r2
 80024f6:	613b      	str	r3, [r7, #16]
 80024f8:	693b      	ldr	r3, [r7, #16]
 80024fa:	f423 7200 	bic.w	r2, r3, #512	; 0x200
 80024fe:	683b      	ldr	r3, [r7, #0]
 8002500:	69db      	ldr	r3, [r3, #28]
 8002502:	005b      	lsls	r3, r3, #1
 8002504:	4313      	orrs	r3, r2
 8002506:	613b      	str	r3, [r7, #16]
 8002508:	687b      	ldr	r3, [r7, #4]
 800250a:	693a      	ldr	r2, [r7, #16]
 800250c:	605a      	str	r2, [r3, #4]
 800250e:	687b      	ldr	r3, [r7, #4]
 8002510:	68fa      	ldr	r2, [r7, #12]
 8002512:	619a      	str	r2, [r3, #24]
 8002514:	683b      	ldr	r3, [r7, #0]
 8002516:	68db      	ldr	r3, [r3, #12]
 8002518:	4619      	mov	r1, r3
 800251a:	6878      	ldr	r0, [r7, #4]
 800251c:	f7ff fe5e 	bl	80021dc <LL_TIM_OC_SetCompareCH1>
 8002520:	687b      	ldr	r3, [r7, #4]
 8002522:	697a      	ldr	r2, [r7, #20]
 8002524:	621a      	str	r2, [r3, #32]
 8002526:	2300      	movs	r3, #0
 8002528:	4618      	mov	r0, r3
 800252a:	3718      	adds	r7, #24
 800252c:	46bd      	mov	sp, r7
 800252e:	bd80      	pop	{r7, pc}
 8002530:	40012c00 	.word	0x40012c00
 8002534:	40014000 	.word	0x40014000
 8002538:	40014400 	.word	0x40014400
 800253c:	40014800 	.word	0x40014800

08002540 <OC2Config>:
 8002540:	b580      	push	{r7, lr}
 8002542:	b086      	sub	sp, #24
 8002544:	af00      	add	r7, sp, #0
 8002546:	6078      	str	r0, [r7, #4]
 8002548:	6039      	str	r1, [r7, #0]
 800254a:	687b      	ldr	r3, [r7, #4]
 800254c:	6a1b      	ldr	r3, [r3, #32]
 800254e:	f023 0210 	bic.w	r2, r3, #16
 8002552:	687b      	ldr	r3, [r7, #4]
 8002554:	621a      	str	r2, [r3, #32]
 8002556:	687b      	ldr	r3, [r7, #4]
 8002558:	6a1b      	ldr	r3, [r3, #32]
 800255a:	617b      	str	r3, [r7, #20]
 800255c:	687b      	ldr	r3, [r7, #4]
 800255e:	685b      	ldr	r3, [r3, #4]
 8002560:	613b      	str	r3, [r7, #16]
 8002562:	687b      	ldr	r3, [r7, #4]
 8002564:	699b      	ldr	r3, [r3, #24]
 8002566:	60fb      	str	r3, [r7, #12]
 8002568:	68fb      	ldr	r3, [r7, #12]
 800256a:	f423 7340 	bic.w	r3, r3, #768	; 0x300
 800256e:	60fb      	str	r3, [r7, #12]
 8002570:	68fb      	ldr	r3, [r7, #12]
 8002572:	f023 7380 	bic.w	r3, r3, #16777216	; 0x1000000
 8002576:	f423 43e0 	bic.w	r3, r3, #28672	; 0x7000
 800257a:	683a      	ldr	r2, [r7, #0]
 800257c:	6812      	ldr	r2, [r2, #0]
 800257e:	0212      	lsls	r2, r2, #8
 8002580:	4313      	orrs	r3, r2
 8002582:	60fb      	str	r3, [r7, #12]
 8002584:	697b      	ldr	r3, [r7, #20]
 8002586:	f023 0220 	bic.w	r2, r3, #32
 800258a:	683b      	ldr	r3, [r7, #0]
 800258c:	691b      	ldr	r3, [r3, #16]
 800258e:	011b      	lsls	r3, r3, #4
 8002590:	4313      	orrs	r3, r2
 8002592:	617b      	str	r3, [r7, #20]
 8002594:	697b      	ldr	r3, [r7, #20]
 8002596:	f023 0210 	bic.w	r2, r3, #16
 800259a:	683b      	ldr	r3, [r7, #0]
 800259c:	685b      	ldr	r3, [r3, #4]
 800259e:	011b      	lsls	r3, r3, #4
 80025a0:	4313      	orrs	r3, r2
 80025a2:	617b      	str	r3, [r7, #20]
 80025a4:	687b      	ldr	r3, [r7, #4]
 80025a6:	4a21      	ldr	r2, [pc, #132]	; (800262c <OC2Config+0xec>)
 80025a8:	4293      	cmp	r3, r2
 80025aa:	d00b      	beq.n	80025c4 <OC2Config+0x84>
 80025ac:	687b      	ldr	r3, [r7, #4]
 80025ae:	4a20      	ldr	r2, [pc, #128]	; (8002630 <OC2Config+0xf0>)
 80025b0:	4293      	cmp	r3, r2
 80025b2:	d007      	beq.n	80025c4 <OC2Config+0x84>
 80025b4:	687b      	ldr	r3, [r7, #4]
 80025b6:	4a1f      	ldr	r2, [pc, #124]	; (8002634 <OC2Config+0xf4>)
 80025b8:	4293      	cmp	r3, r2
 80025ba:	d003      	beq.n	80025c4 <OC2Config+0x84>
 80025bc:	687b      	ldr	r3, [r7, #4]
 80025be:	4a1e      	ldr	r2, [pc, #120]	; (8002638 <OC2Config+0xf8>)
 80025c0:	4293      	cmp	r3, r2
 80025c2:	d11f      	bne.n	8002604 <OC2Config+0xc4>
 80025c4:	697b      	ldr	r3, [r7, #20]
 80025c6:	f023 0280 	bic.w	r2, r3, #128	; 0x80
 80025ca:	683b      	ldr	r3, [r7, #0]
 80025cc:	695b      	ldr	r3, [r3, #20]
 80025ce:	019b      	lsls	r3, r3, #6
 80025d0:	4313      	orrs	r3, r2
 80025d2:	617b      	str	r3, [r7, #20]
 80025d4:	697b      	ldr	r3, [r7, #20]
 80025d6:	f023 0240 	bic.w	r2, r3, #64	; 0x40
 80025da:	683b      	ldr	r3, [r7, #0]
 80025dc:	689b      	ldr	r3, [r3, #8]
 80025de:	019b      	lsls	r3, r3, #6
 80025e0:	4313      	orrs	r3, r2
 80025e2:	617b      	str	r3, [r7, #20]
 80025e4:	693b      	ldr	r3, [r7, #16]
 80025e6:	f423 6280 	bic.w	r2, r3, #1024	; 0x400
 80025ea:	683b      	ldr	r3, [r7, #0]
 80025ec:	699b      	ldr	r3, [r3, #24]
 80025ee:	009b      	lsls	r3, r3, #2
 80025f0:	4313      	orrs	r3, r2
 80025f2:	613b      	str	r3, [r7, #16]
 80025f4:	693b      	ldr	r3, [r7, #16]
 80025f6:	f423 6200 	bic.w	r2, r3, #2048	; 0x800
 80025fa:	683b      	ldr	r3, [r7, #0]
 80025fc:	69db      	ldr	r3, [r3, #28]
 80025fe:	00db      	lsls	r3, r3, #3
 8002600:	4313      	orrs	r3, r2
 8002602:	613b      	str	r3, [r7, #16]
 8002604:	687b      	ldr	r3, [r7, #4]
 8002606:	693a      	ldr	r2, [r7, #16]
 8002608:	605a      	str	r2, [r3, #4]
 800260a:	687b      	ldr	r3, [r7, #4]
 800260c:	68fa      	ldr	r2, [r7, #12]
 800260e:	619a      	str	r2, [r3, #24]
 8002610:	683b      	ldr	r3, [r7, #0]
 8002612:	68db      	ldr	r3, [r3, #12]
 8002614:	4619      	mov	r1, r3
 8002616:	6878      	ldr	r0, [r7, #4]
 8002618:	f7ff fdee 	bl	80021f8 <LL_TIM_OC_SetCompareCH2>
 800261c:	687b      	ldr	r3, [r7, #4]
 800261e:	697a      	ldr	r2, [r7, #20]
 8002620:	621a      	str	r2, [r3, #32]
 8002622:	2300      	movs	r3, #0
 8002624:	4618      	mov	r0, r3
 8002626:	3718      	adds	r7, #24
 8002628:	46bd      	mov	sp, r7
 800262a:	bd80      	pop	{r7, pc}
 800262c:	40012c00 	.word	0x40012c00
 8002630:	40014000 	.word	0x40014000
 8002634:	40014400 	.word	0x40014400
 8002638:	40014800 	.word	0x40014800

0800263c <OC3Config>:
 800263c:	b580      	push	{r7, lr}
 800263e:	b086      	sub	sp, #24
 8002640:	af00      	add	r7, sp, #0
 8002642:	6078      	str	r0, [r7, #4]
 8002644:	6039      	str	r1, [r7, #0]
 8002646:	687b      	ldr	r3, [r7, #4]
 8002648:	6a1b      	ldr	r3, [r3, #32]
 800264a:	f423 7280 	bic.w	r2, r3, #256	; 0x100
 800264e:	687b      	ldr	r3, [r7, #4]
 8002650:	621a      	str	r2, [r3, #32]
 8002652:	687b      	ldr	r3, [r7, #4]
 8002654:	6a1b      	ldr	r3, [r3, #32]
 8002656:	617b      	str	r3, [r7, #20]
 8002658:	687b      	ldr	r3, [r7, #4]
 800265a:	685b      	ldr	r3, [r3, #4]
 800265c:	613b      	str	r3, [r7, #16]
 800265e:	687b      	ldr	r3, [r7, #4]
 8002660:	69db      	ldr	r3, [r3, #28]
 8002662:	60fb      	str	r3, [r7, #12]
 8002664:	68fb      	ldr	r3, [r7, #12]
 8002666:	f023 0303 	bic.w	r3, r3, #3
 800266a:	60fb      	str	r3, [r7, #12]
 800266c:	68fb      	ldr	r3, [r7, #12]
 800266e:	f423 3380 	bic.w	r3, r3, #65536	; 0x10000
 8002672:	f023 0370 	bic.w	r3, r3, #112	; 0x70
 8002676:	683a      	ldr	r2, [r7, #0]
 8002678:	6812      	ldr	r2, [r2, #0]
 800267a:	4313      	orrs	r3, r2
 800267c:	60fb      	str	r3, [r7, #12]
 800267e:	697b      	ldr	r3, [r7, #20]
 8002680:	f423 7200 	bic.w	r2, r3, #512	; 0x200
 8002684:	683b      	ldr	r3, [r7, #0]
 8002686:	691b      	ldr	r3, [r3, #16]
 8002688:	021b      	lsls	r3, r3, #8
 800268a:	4313      	orrs	r3, r2
 800268c:	617b      	str	r3, [r7, #20]
 800268e:	697b      	ldr	r3, [r7, #20]
 8002690:	f423 7280 	bic.w	r2, r3, #256	; 0x100
 8002694:	683b      	ldr	r3, [r7, #0]
 8002696:	685b      	ldr	r3, [r3, #4]
 8002698:	021b      	lsls	r3, r3, #8
 800269a:	4313      	orrs	r3, r2
 800269c:	617b      	str	r3, [r7, #20]
 800269e:	687b      	ldr	r3, [r7, #4]
 80026a0:	4a21      	ldr	r2, [pc, #132]	; (8002728 <OC3Config+0xec>)
 80026a2:	4293      	cmp	r3, r2
 80026a4:	d00b      	beq.n	80026be <OC3Config+0x82>
 80026a6:	687b      	ldr	r3, [r7, #4]
 80026a8:	4a20      	ldr	r2, [pc, #128]	; (800272c <OC3Config+0xf0>)
 80026aa:	4293      	cmp	r3, r2
 80026ac:	d007      	beq.n	80026be <OC3Config+0x82>
 80026ae:	687b      	ldr	r3, [r7, #4]
 80026b0:	4a1f      	ldr	r2, [pc, #124]	; (8002730 <OC3Config+0xf4>)
 80026b2:	4293      	cmp	r3, r2
 80026b4:	d003      	beq.n	80026be <OC3Config+0x82>
 80026b6:	687b      	ldr	r3, [r7, #4]
 80026b8:	4a1e      	ldr	r2, [pc, #120]	; (8002734 <OC3Config+0xf8>)
 80026ba:	4293      	cmp	r3, r2
 80026bc:	d11f      	bne.n	80026fe <OC3Config+0xc2>
 80026be:	697b      	ldr	r3, [r7, #20]
 80026c0:	f423 6200 	bic.w	r2, r3, #2048	; 0x800
 80026c4:	683b      	ldr	r3, [r7, #0]
 80026c6:	695b      	ldr	r3, [r3, #20]
 80026c8:	029b      	lsls	r3, r3, #10
 80026ca:	4313      	orrs	r3, r2
 80026cc:	617b      	str	r3, [r7, #20]
 80026ce:	697b      	ldr	r3, [r7, #20]
 80026d0:	f423 6280 	bic.w	r2, r3, #1024	; 0x400
 80026d4:	683b      	ldr	r3, [r7, #0]
 80026d6:	689b      	ldr	r3, [r3, #8]
 80026d8:	029b      	lsls	r3, r3, #10
 80026da:	4313      	orrs	r3, r2
 80026dc:	617b      	str	r3, [r7, #20]
 80026de:	693b      	ldr	r3, [r7, #16]
 80026e0:	f423 5280 	bic.w	r2, r3, #4096	; 0x1000
 80026e4:	683b      	ldr	r3, [r7, #0]
 80026e6:	699b      	ldr	r3, [r3, #24]
 80026e8:	011b      	lsls	r3, r3, #4
 80026ea:	4313      	orrs	r3, r2
 80026ec:	613b      	str	r3, [r7, #16]
 80026ee:	693b      	ldr	r3, [r7, #16]
 80026f0:	f423 5200 	bic.w	r2, r3, #8192	; 0x2000
 80026f4:	683b      	ldr	r3, [r7, #0]
 80026f6:	69db      	ldr	r3, [r3, #28]
 80026f8:	015b      	lsls	r3, r3, #5
 80026fa:	4313      	orrs	r3, r2
 80026fc:	613b      	str	r3, [r7, #16]
 80026fe:	687b      	ldr	r3, [r7, #4]
 8002700:	693a      	ldr	r2, [r7, #16]
 8002702:	605a      	str	r2, [r3, #4]
 8002704:	687b      	ldr	r3, [r7, #4]
 8002706:	68fa      	ldr	r2, [r7, #12]
 8002708:	61da      	str	r2, [r3, #28]
 800270a:	683b      	ldr	r3, [r7, #0]
 800270c:	68db      	ldr	r3, [r3, #12]
 800270e:	4619      	mov	r1, r3
 8002710:	6878      	ldr	r0, [r7, #4]
 8002712:	f7ff fd7f 	bl	8002214 <LL_TIM_OC_SetCompareCH3>
 8002716:	687b      	ldr	r3, [r7, #4]
 8002718:	697a      	ldr	r2, [r7, #20]
 800271a:	621a      	str	r2, [r3, #32]
 800271c:	2300      	movs	r3, #0
 800271e:	4618      	mov	r0, r3
 8002720:	3718      	adds	r7, #24
 8002722:	46bd      	mov	sp, r7
 8002724:	bd80      	pop	{r7, pc}
 8002726:	bf00      	nop
 8002728:	40012c00 	.word	0x40012c00
 800272c:	40014000 	.word	0x40014000
 8002730:	40014400 	.word	0x40014400
 8002734:	40014800 	.word	0x40014800

08002738 <OC4Config>:
 8002738:	b580      	push	{r7, lr}
 800273a:	b086      	sub	sp, #24
 800273c:	af00      	add	r7, sp, #0
 800273e:	6078      	str	r0, [r7, #4]
 8002740:	6039      	str	r1, [r7, #0]
 8002742:	687b      	ldr	r3, [r7, #4]
 8002744:	6a1b      	ldr	r3, [r3, #32]
 8002746:	f423 5280 	bic.w	r2, r3, #4096	; 0x1000
 800274a:	687b      	ldr	r3, [r7, #4]
 800274c:	621a      	str	r2, [r3, #32]
 800274e:	687b      	ldr	r3, [r7, #4]
 8002750:	6a1b      	ldr	r3, [r3, #32]
 8002752:	613b      	str	r3, [r7, #16]
 8002754:	687b      	ldr	r3, [r7, #4]
 8002756:	685b      	ldr	r3, [r3, #4]
 8002758:	617b      	str	r3, [r7, #20]
 800275a:	687b      	ldr	r3, [r7, #4]
 800275c:	69db      	ldr	r3, [r3, #28]
 800275e:	60fb      	str	r3, [r7, #12]
 8002760:	68fb      	ldr	r3, [r7, #12]
 8002762:	f423 7340 	bic.w	r3, r3, #768	; 0x300
 8002766:	60fb      	str	r3, [r7, #12]
 8002768:	68fb      	ldr	r3, [r7, #12]
 800276a:	f023 7380 	bic.w	r3, r3, #16777216	; 0x1000000
 800276e:	f423 43e0 	bic.w	r3, r3, #28672	; 0x7000
 8002772:	683a      	ldr	r2, [r7, #0]
 8002774:	6812      	ldr	r2, [r2, #0]
 8002776:	0212      	lsls	r2, r2, #8
 8002778:	4313      	orrs	r3, r2
 800277a:	60fb      	str	r3, [r7, #12]
 800277c:	693b      	ldr	r3, [r7, #16]
 800277e:	f423 5200 	bic.w	r2, r3, #8192	; 0x2000
 8002782:	683b      	ldr	r3, [r7, #0]
 8002784:	691b      	ldr	r3, [r3, #16]
 8002786:	031b      	lsls	r3, r3, #12
 8002788:	4313      	orrs	r3, r2
 800278a:	613b      	str	r3, [r7, #16]
 800278c:	693b      	ldr	r3, [r7, #16]
 800278e:	f423 5280 	bic.w	r2, r3, #4096	; 0x1000
 8002792:	683b      	ldr	r3, [r7, #0]
 8002794:	685b      	ldr	r3, [r3, #4]
 8002796:	031b      	lsls	r3, r3, #12
 8002798:	4313      	orrs	r3, r2
 800279a:	613b      	str	r3, [r7, #16]
 800279c:	687b      	ldr	r3, [r7, #4]
 800279e:	4a15      	ldr	r2, [pc, #84]	; (80027f4 <OC4Config+0xbc>)
 80027a0:	4293      	cmp	r3, r2
 80027a2:	d00b      	beq.n	80027bc <OC4Config+0x84>
 80027a4:	687b      	ldr	r3, [r7, #4]
 80027a6:	4a14      	ldr	r2, [pc, #80]	; (80027f8 <OC4Config+0xc0>)
 80027a8:	4293      	cmp	r3, r2
 80027aa:	d007      	beq.n	80027bc <OC4Config+0x84>
 80027ac:	687b      	ldr	r3, [r7, #4]
 80027ae:	4a13      	ldr	r2, [pc, #76]	; (80027fc <OC4Config+0xc4>)
 80027b0:	4293      	cmp	r3, r2
 80027b2:	d003      	beq.n	80027bc <OC4Config+0x84>
 80027b4:	687b      	ldr	r3, [r7, #4]
 80027b6:	4a12      	ldr	r2, [pc, #72]	; (8002800 <OC4Config+0xc8>)
 80027b8:	4293      	cmp	r3, r2
 80027ba:	d107      	bne.n	80027cc <OC4Config+0x94>
 80027bc:	697b      	ldr	r3, [r7, #20]
 80027be:	f423 4280 	bic.w	r2, r3, #16384	; 0x4000
 80027c2:	683b      	ldr	r3, [r7, #0]
 80027c4:	699b      	ldr	r3, [r3, #24]
 80027c6:	019b      	lsls	r3, r3, #6
 80027c8:	4313      	orrs	r3, r2
 80027ca:	617b      	str	r3, [r7, #20]
 80027cc:	687b      	ldr	r3, [r7, #4]
 80027ce:	697a      	ldr	r2, [r7, #20]
 80027d0:	605a      	str	r2, [r3, #4]
 80027d2:	687b      	ldr	r3, [r7, #4]
 80027d4:	68fa      	ldr	r2, [r7, #12]
 80027d6:	61da      	str	r2, [r3, #28]
 80027d8:	683b      	ldr	r3, [r7, #0]
 80027da:	68db      	ldr	r3, [r3, #12]
 80027dc:	4619      	mov	r1, r3
 80027de:	6878      	ldr	r0, [r7, #4]
 80027e0:	f7ff fd26 	bl	8002230 <LL_TIM_OC_SetCompareCH4>
 80027e4:	687b      	ldr	r3, [r7, #4]
 80027e6:	693a      	ldr	r2, [r7, #16]
 80027e8:	621a      	str	r2, [r3, #32]
 80027ea:	2300      	movs	r3, #0
 80027ec:	4618      	mov	r0, r3
 80027ee:	3718      	adds	r7, #24
 80027f0:	46bd      	mov	sp, r7
 80027f2:	bd80      	pop	{r7, pc}
 80027f4:	40012c00 	.word	0x40012c00
 80027f8:	40014000 	.word	0x40014000
 80027fc:	40014400 	.word	0x40014400
 8002800:	40014800 	.word	0x40014800

08002804 <OC5Config>:
 8002804:	b580      	push	{r7, lr}
 8002806:	b084      	sub	sp, #16
 8002808:	af00      	add	r7, sp, #0
 800280a:	6078      	str	r0, [r7, #4]
 800280c:	6039      	str	r1, [r7, #0]
 800280e:	687b      	ldr	r3, [r7, #4]
 8002810:	6a1b      	ldr	r3, [r3, #32]
 8002812:	f423 3280 	bic.w	r2, r3, #65536	; 0x10000
 8002816:	687b      	ldr	r3, [r7, #4]
 8002818:	621a      	str	r2, [r3, #32]
 800281a:	687b      	ldr	r3, [r7, #4]
 800281c:	6a1b      	ldr	r3, [r3, #32]
 800281e:	60fb      	str	r3, [r7, #12]
 8002820:	687b      	ldr	r3, [r7, #4]
 8002822:	6d5b      	ldr	r3, [r3, #84]	; 0x54
 8002824:	60bb      	str	r3, [r7, #8]
 8002826:	68bb      	ldr	r3, [r7, #8]
 8002828:	f423 3380 	bic.w	r3, r3, #65536	; 0x10000
 800282c:	f023 0370 	bic.w	r3, r3, #112	; 0x70
 8002830:	683a      	ldr	r2, [r7, #0]
 8002832:	6812      	ldr	r2, [r2, #0]
 8002834:	4313      	orrs	r3, r2
 8002836:	60bb      	str	r3, [r7, #8]
 8002838:	68fb      	ldr	r3, [r7, #12]
 800283a:	f423 3200 	bic.w	r2, r3, #131072	; 0x20000
 800283e:	683b      	ldr	r3, [r7, #0]
 8002840:	691b      	ldr	r3, [r3, #16]
 8002842:	041b      	lsls	r3, r3, #16
 8002844:	4313      	orrs	r3, r2
 8002846:	60fb      	str	r3, [r7, #12]
 8002848:	68fb      	ldr	r3, [r7, #12]
 800284a:	f423 3280 	bic.w	r2, r3, #65536	; 0x10000
 800284e:	683b      	ldr	r3, [r7, #0]
 8002850:	685b      	ldr	r3, [r3, #4]
 8002852:	041b      	lsls	r3, r3, #16
 8002854:	4313      	orrs	r3, r2
 8002856:	60fb      	str	r3, [r7, #12]
 8002858:	687b      	ldr	r3, [r7, #4]
 800285a:	4a15      	ldr	r2, [pc, #84]	; (80028b0 <OC5Config+0xac>)
 800285c:	4293      	cmp	r3, r2
 800285e:	d00b      	beq.n	8002878 <OC5Config+0x74>
 8002860:	687b      	ldr	r3, [r7, #4]
 8002862:	4a14      	ldr	r2, [pc, #80]	; (80028b4 <OC5Config+0xb0>)
 8002864:	4293      	cmp	r3, r2
 8002866:	d007      	beq.n	8002878 <OC5Config+0x74>
 8002868:	687b      	ldr	r3, [r7, #4]
 800286a:	4a13      	ldr	r2, [pc, #76]	; (80028b8 <OC5Config+0xb4>)
 800286c:	4293      	cmp	r3, r2
 800286e:	d003      	beq.n	8002878 <OC5Config+0x74>
 8002870:	687b      	ldr	r3, [r7, #4]
 8002872:	4a12      	ldr	r2, [pc, #72]	; (80028bc <OC5Config+0xb8>)
 8002874:	4293      	cmp	r3, r2
 8002876:	d109      	bne.n	800288c <OC5Config+0x88>
 8002878:	687b      	ldr	r3, [r7, #4]
 800287a:	685b      	ldr	r3, [r3, #4]
 800287c:	f423 3280 	bic.w	r2, r3, #65536	; 0x10000
 8002880:	683b      	ldr	r3, [r7, #0]
 8002882:	699b      	ldr	r3, [r3, #24]
 8002884:	021b      	lsls	r3, r3, #8
 8002886:	431a      	orrs	r2, r3
 8002888:	687b      	ldr	r3, [r7, #4]
 800288a:	605a      	str	r2, [r3, #4]
 800288c:	687b      	ldr	r3, [r7, #4]
 800288e:	68ba      	ldr	r2, [r7, #8]
 8002890:	655a      	str	r2, [r3, #84]	; 0x54
 8002892:	683b      	ldr	r3, [r7, #0]
 8002894:	68db      	ldr	r3, [r3, #12]
 8002896:	4619      	mov	r1, r3
 8002898:	6878      	ldr	r0, [r7, #4]
 800289a:	f7ff fcd7 	bl	800224c <LL_TIM_OC_SetCompareCH5>
 800289e:	687b      	ldr	r3, [r7, #4]
 80028a0:	68fa      	ldr	r2, [r7, #12]
 80028a2:	621a      	str	r2, [r3, #32]
 80028a4:	2300      	movs	r3, #0
 80028a6:	4618      	mov	r0, r3
 80028a8:	3710      	adds	r7, #16
 80028aa:	46bd      	mov	sp, r7
 80028ac:	bd80      	pop	{r7, pc}
 80028ae:	bf00      	nop
 80028b0:	40012c00 	.word	0x40012c00
 80028b4:	40014000 	.word	0x40014000
 80028b8:	40014400 	.word	0x40014400
 80028bc:	40014800 	.word	0x40014800

080028c0 <OC6Config>:
 80028c0:	b580      	push	{r7, lr}
 80028c2:	b084      	sub	sp, #16
 80028c4:	af00      	add	r7, sp, #0
 80028c6:	6078      	str	r0, [r7, #4]
 80028c8:	6039      	str	r1, [r7, #0]
 80028ca:	687b      	ldr	r3, [r7, #4]
 80028cc:	6a1b      	ldr	r3, [r3, #32]
 80028ce:	f423 1280 	bic.w	r2, r3, #1048576	; 0x100000
 80028d2:	687b      	ldr	r3, [r7, #4]
 80028d4:	621a      	str	r2, [r3, #32]
 80028d6:	687b      	ldr	r3, [r7, #4]
 80028d8:	6a1b      	ldr	r3, [r3, #32]
 80028da:	60fb      	str	r3, [r7, #12]
 80028dc:	687b      	ldr	r3, [r7, #4]
 80028de:	6d5b      	ldr	r3, [r3, #84]	; 0x54
 80028e0:	60bb      	str	r3, [r7, #8]
 80028e2:	68bb      	ldr	r3, [r7, #8]
 80028e4:	f023 7380 	bic.w	r3, r3, #16777216	; 0x1000000
 80028e8:	f423 43e0 	bic.w	r3, r3, #28672	; 0x7000
 80028ec:	683a      	ldr	r2, [r7, #0]
 80028ee:	6812      	ldr	r2, [r2, #0]
 80028f0:	0212      	lsls	r2, r2, #8
 80028f2:	4313      	orrs	r3, r2
 80028f4:	60bb      	str	r3, [r7, #8]
 80028f6:	68fb      	ldr	r3, [r7, #12]
 80028f8:	f423 1200 	bic.w	r2, r3, #2097152	; 0x200000
 80028fc:	683b      	ldr	r3, [r7, #0]
 80028fe:	691b      	ldr	r3, [r3, #16]
 8002900:	051b      	lsls	r3, r3, #20
 8002902:	4313      	orrs	r3, r2
 8002904:	60fb      	str	r3, [r7, #12]
 8002906:	68fb      	ldr	r3, [r7, #12]
 8002908:	f423 1280 	bic.w	r2, r3, #1048576	; 0x100000
 800290c:	683b      	ldr	r3, [r7, #0]
 800290e:	685b      	ldr	r3, [r3, #4]
 8002910:	051b      	lsls	r3, r3, #20
 8002912:	4313      	orrs	r3, r2
 8002914:	60fb      	str	r3, [r7, #12]
 8002916:	687b      	ldr	r3, [r7, #4]
 8002918:	4a14      	ldr	r2, [pc, #80]	; (800296c <OC6Config+0xac>)
 800291a:	4293      	cmp	r3, r2
 800291c:	d00b      	beq.n	8002936 <OC6Config+0x76>
 800291e:	687b      	ldr	r3, [r7, #4]
 8002920:	4a13      	ldr	r2, [pc, #76]	; (8002970 <OC6Config+0xb0>)
 8002922:	4293      	cmp	r3, r2
 8002924:	d007      	beq.n	8002936 <OC6Config+0x76>
 8002926:	687b      	ldr	r3, [r7, #4]
 8002928:	4a12      	ldr	r2, [pc, #72]	; (8002974 <OC6Config+0xb4>)
 800292a:	4293      	cmp	r3, r2
 800292c:	d003      	beq.n	8002936 <OC6Config+0x76>
 800292e:	687b      	ldr	r3, [r7, #4]
 8002930:	4a11      	ldr	r2, [pc, #68]	; (8002978 <OC6Config+0xb8>)
 8002932:	4293      	cmp	r3, r2
 8002934:	d109      	bne.n	800294a <OC6Config+0x8a>
 8002936:	687b      	ldr	r3, [r7, #4]
 8002938:	685b      	ldr	r3, [r3, #4]
 800293a:	f423 2280 	bic.w	r2, r3, #262144	; 0x40000
 800293e:	683b      	ldr	r3, [r7, #0]
 8002940:	699b      	ldr	r3, [r3, #24]
 8002942:	029b      	lsls	r3, r3, #10
 8002944:	431a      	orrs	r2, r3
 8002946:	687b      	ldr	r3, [r7, #4]
 8002948:	605a      	str	r2, [r3, #4]
 800294a:	687b      	ldr	r3, [r7, #4]
 800294c:	68ba      	ldr	r2, [r7, #8]
 800294e:	655a      	str	r2, [r3, #84]	; 0x54
 8002950:	683b      	ldr	r3, [r7, #0]
 8002952:	68db      	ldr	r3, [r3, #12]
 8002954:	4619      	mov	r1, r3
 8002956:	6878      	ldr	r0, [r7, #4]
 8002958:	f7ff fc88 	bl	800226c <LL_TIM_OC_SetCompareCH6>
 800295c:	687b      	ldr	r3, [r7, #4]
 800295e:	68fa      	ldr	r2, [r7, #12]
 8002960:	621a      	str	r2, [r3, #32]
 8002962:	2300      	movs	r3, #0
 8002964:	4618      	mov	r0, r3
 8002966:	3710      	adds	r7, #16
 8002968:	46bd      	mov	sp, r7
 800296a:	bd80      	pop	{r7, pc}
 800296c:	40012c00 	.word	0x40012c00
 8002970:	40014000 	.word	0x40014000
 8002974:	40014400 	.word	0x40014400
 8002978:	40014800 	.word	0x40014800

0800297c <LL_USART_IsEnabled>:
 800297c:	b480      	push	{r7}
 800297e:	b083      	sub	sp, #12
 8002980:	af00      	add	r7, sp, #0
 8002982:	6078      	str	r0, [r7, #4]
 8002984:	687b      	ldr	r3, [r7, #4]
 8002986:	681b      	ldr	r3, [r3, #0]
 8002988:	f003 0301 	and.w	r3, r3, #1
 800298c:	2b01      	cmp	r3, #1
 800298e:	d101      	bne.n	8002994 <LL_USART_IsEnabled+0x18>
 8002990:	2301      	movs	r3, #1
 8002992:	e000      	b.n	8002996 <LL_USART_IsEnabled+0x1a>
 8002994:	2300      	movs	r3, #0
 8002996:	4618      	mov	r0, r3
 8002998:	370c      	adds	r7, #12
 800299a:	46bd      	mov	sp, r7
 800299c:	f85d 7b04 	ldr.w	r7, [sp], #4
 80029a0:	4770      	bx	lr

080029a2 <LL_USART_SetStopBitsLength>:
 80029a2:	b480      	push	{r7}
 80029a4:	b083      	sub	sp, #12
 80029a6:	af00      	add	r7, sp, #0
 80029a8:	6078      	str	r0, [r7, #4]
 80029aa:	6039      	str	r1, [r7, #0]
 80029ac:	687b      	ldr	r3, [r7, #4]
 80029ae:	685b      	ldr	r3, [r3, #4]
 80029b0:	f423 5240 	bic.w	r2, r3, #12288	; 0x3000
 80029b4:	683b      	ldr	r3, [r7, #0]
 80029b6:	431a      	orrs	r2, r3
 80029b8:	687b      	ldr	r3, [r7, #4]
 80029ba:	605a      	str	r2, [r3, #4]
 80029bc:	bf00      	nop
 80029be:	370c      	adds	r7, #12
 80029c0:	46bd      	mov	sp, r7
 80029c2:	f85d 7b04 	ldr.w	r7, [sp], #4
 80029c6:	4770      	bx	lr

080029c8 <LL_USART_SetHWFlowCtrl>:
 80029c8:	b480      	push	{r7}
 80029ca:	b083      	sub	sp, #12
 80029cc:	af00      	add	r7, sp, #0
 80029ce:	6078      	str	r0, [r7, #4]
 80029d0:	6039      	str	r1, [r7, #0]
 80029d2:	687b      	ldr	r3, [r7, #4]
 80029d4:	689b      	ldr	r3, [r3, #8]
 80029d6:	f423 7240 	bic.w	r2, r3, #768	; 0x300
 80029da:	683b      	ldr	r3, [r7, #0]
 80029dc:	431a      	orrs	r2, r3
 80029de:	687b      	ldr	r3, [r7, #4]
 80029e0:	609a      	str	r2, [r3, #8]
 80029e2:	bf00      	nop
 80029e4:	370c      	adds	r7, #12
 80029e6:	46bd      	mov	sp, r7
 80029e8:	f85d 7b04 	ldr.w	r7, [sp], #4
 80029ec:	4770      	bx	lr

080029ee <LL_USART_SetBaudRate>:
 80029ee:	b480      	push	{r7}
 80029f0:	b087      	sub	sp, #28
 80029f2:	af00      	add	r7, sp, #0
 80029f4:	60f8      	str	r0, [r7, #12]
 80029f6:	60b9      	str	r1, [r7, #8]
 80029f8:	607a      	str	r2, [r7, #4]
 80029fa:	603b      	str	r3, [r7, #0]
 80029fc:	687b      	ldr	r3, [r7, #4]
 80029fe:	f5b3 4f00 	cmp.w	r3, #32768	; 0x8000
 8002a02:	d11a      	bne.n	8002a3a <LL_USART_SetBaudRate+0x4c>
 8002a04:	68bb      	ldr	r3, [r7, #8]
 8002a06:	005a      	lsls	r2, r3, #1
 8002a08:	683b      	ldr	r3, [r7, #0]
 8002a0a:	085b      	lsrs	r3, r3, #1
 8002a0c:	441a      	add	r2, r3
 8002a0e:	683b      	ldr	r3, [r7, #0]
 8002a10:	fbb2 f3f3 	udiv	r3, r2, r3
 8002a14:	b29b      	uxth	r3, r3
 8002a16:	617b      	str	r3, [r7, #20]
 8002a18:	697a      	ldr	r2, [r7, #20]
 8002a1a:	f64f 73f0 	movw	r3, #65520	; 0xfff0
 8002a1e:	4013      	ands	r3, r2
 8002a20:	613b      	str	r3, [r7, #16]
 8002a22:	697b      	ldr	r3, [r7, #20]
 8002a24:	085b      	lsrs	r3, r3, #1
 8002a26:	b29b      	uxth	r3, r3
 8002a28:	f003 0307 	and.w	r3, r3, #7
 8002a2c:	693a      	ldr	r2, [r7, #16]
 8002a2e:	4313      	orrs	r3, r2
 8002a30:	613b      	str	r3, [r7, #16]
 8002a32:	68fb      	ldr	r3, [r7, #12]
 8002a34:	693a      	ldr	r2, [r7, #16]
 8002a36:	60da      	str	r2, [r3, #12]
 8002a38:	e00a      	b.n	8002a50 <LL_USART_SetBaudRate+0x62>
 8002a3a:	683b      	ldr	r3, [r7, #0]
 8002a3c:	085a      	lsrs	r2, r3, #1
 8002a3e:	68bb      	ldr	r3, [r7, #8]
 8002a40:	441a      	add	r2, r3
 8002a42:	683b      	ldr	r3, [r7, #0]
 8002a44:	fbb2 f3f3 	udiv	r3, r2, r3
 8002a48:	b29b      	uxth	r3, r3
 8002a4a:	461a      	mov	r2, r3
 8002a4c:	68fb      	ldr	r3, [r7, #12]
 8002a4e:	60da      	str	r2, [r3, #12]
 8002a50:	bf00      	nop
 8002a52:	371c      	adds	r7, #28
 8002a54:	46bd      	mov	sp, r7
 8002a56:	f85d 7b04 	ldr.w	r7, [sp], #4
 8002a5a:	4770      	bx	lr

08002a5c <LL_USART_Init>:
 8002a5c:	b580      	push	{r7, lr}
 8002a5e:	b088      	sub	sp, #32
 8002a60:	af00      	add	r7, sp, #0
 8002a62:	6078      	str	r0, [r7, #4]
 8002a64:	6039      	str	r1, [r7, #0]
 8002a66:	2301      	movs	r3, #1
 8002a68:	77fb      	strb	r3, [r7, #31]
 8002a6a:	2300      	movs	r3, #0
 8002a6c:	61bb      	str	r3, [r7, #24]
 8002a6e:	6878      	ldr	r0, [r7, #4]
 8002a70:	f7ff ff84 	bl	800297c <LL_USART_IsEnabled>
 8002a74:	4603      	mov	r3, r0
 8002a76:	2b00      	cmp	r3, #0
 8002a78:	d14e      	bne.n	8002b18 <LL_USART_Init+0xbc>
 8002a7a:	687b      	ldr	r3, [r7, #4]
 8002a7c:	681a      	ldr	r2, [r3, #0]
 8002a7e:	4b29      	ldr	r3, [pc, #164]	; (8002b24 <LL_USART_Init+0xc8>)
 8002a80:	4013      	ands	r3, r2
 8002a82:	683a      	ldr	r2, [r7, #0]
 8002a84:	6851      	ldr	r1, [r2, #4]
 8002a86:	683a      	ldr	r2, [r7, #0]
 8002a88:	68d2      	ldr	r2, [r2, #12]
 8002a8a:	4311      	orrs	r1, r2
 8002a8c:	683a      	ldr	r2, [r7, #0]
 8002a8e:	6912      	ldr	r2, [r2, #16]
 8002a90:	4311      	orrs	r1, r2
 8002a92:	683a      	ldr	r2, [r7, #0]
 8002a94:	6992      	ldr	r2, [r2, #24]
 8002a96:	430a      	orrs	r2, r1
 8002a98:	431a      	orrs	r2, r3
 8002a9a:	687b      	ldr	r3, [r7, #4]
 8002a9c:	601a      	str	r2, [r3, #0]
 8002a9e:	683b      	ldr	r3, [r7, #0]
 8002aa0:	689b      	ldr	r3, [r3, #8]
 8002aa2:	4619      	mov	r1, r3
 8002aa4:	6878      	ldr	r0, [r7, #4]
 8002aa6:	f7ff ff7c 	bl	80029a2 <LL_USART_SetStopBitsLength>
 8002aaa:	683b      	ldr	r3, [r7, #0]
 8002aac:	695b      	ldr	r3, [r3, #20]
 8002aae:	4619      	mov	r1, r3
 8002ab0:	6878      	ldr	r0, [r7, #4]
 8002ab2:	f7ff ff89 	bl	80029c8 <LL_USART_SetHWFlowCtrl>
 8002ab6:	687b      	ldr	r3, [r7, #4]
 8002ab8:	4a1b      	ldr	r2, [pc, #108]	; (8002b28 <LL_USART_Init+0xcc>)
 8002aba:	4293      	cmp	r3, r2
 8002abc:	d104      	bne.n	8002ac8 <LL_USART_Init+0x6c>
 8002abe:	2000      	movs	r0, #0
 8002ac0:	f7ff fa7c 	bl	8001fbc <LL_RCC_GetUSARTClockFreq>
 8002ac4:	61b8      	str	r0, [r7, #24]
 8002ac6:	e016      	b.n	8002af6 <LL_USART_Init+0x9a>
 8002ac8:	687b      	ldr	r3, [r7, #4]
 8002aca:	4a18      	ldr	r2, [pc, #96]	; (8002b2c <LL_USART_Init+0xd0>)
 8002acc:	4293      	cmp	r3, r2
 8002ace:	d107      	bne.n	8002ae0 <LL_USART_Init+0x84>
 8002ad0:	f107 0308 	add.w	r3, r7, #8
 8002ad4:	4618      	mov	r0, r3
 8002ad6:	f7ff fa4b 	bl	8001f70 <LL_RCC_GetSystemClocksFreq>
 8002ada:	693b      	ldr	r3, [r7, #16]
 8002adc:	61bb      	str	r3, [r7, #24]
 8002ade:	e00a      	b.n	8002af6 <LL_USART_Init+0x9a>
 8002ae0:	687b      	ldr	r3, [r7, #4]
 8002ae2:	4a13      	ldr	r2, [pc, #76]	; (8002b30 <LL_USART_Init+0xd4>)
 8002ae4:	4293      	cmp	r3, r2
 8002ae6:	d106      	bne.n	8002af6 <LL_USART_Init+0x9a>
 8002ae8:	f107 0308 	add.w	r3, r7, #8
 8002aec:	4618      	mov	r0, r3
 8002aee:	f7ff fa3f 	bl	8001f70 <LL_RCC_GetSystemClocksFreq>
 8002af2:	693b      	ldr	r3, [r7, #16]
 8002af4:	61bb      	str	r3, [r7, #24]
 8002af6:	69bb      	ldr	r3, [r7, #24]
 8002af8:	2b00      	cmp	r3, #0
 8002afa:	d00d      	beq.n	8002b18 <LL_USART_Init+0xbc>
 8002afc:	683b      	ldr	r3, [r7, #0]
 8002afe:	681b      	ldr	r3, [r3, #0]
 8002b00:	2b00      	cmp	r3, #0
 8002b02:	d009      	beq.n	8002b18 <LL_USART_Init+0xbc>
 8002b04:	2300      	movs	r3, #0
 8002b06:	77fb      	strb	r3, [r7, #31]
 8002b08:	683b      	ldr	r3, [r7, #0]
 8002b0a:	699a      	ldr	r2, [r3, #24]
 8002b0c:	683b      	ldr	r3, [r7, #0]
 8002b0e:	681b      	ldr	r3, [r3, #0]
 8002b10:	69b9      	ldr	r1, [r7, #24]
 8002b12:	6878      	ldr	r0, [r7, #4]
 8002b14:	f7ff ff6b 	bl	80029ee <LL_USART_SetBaudRate>
 8002b18:	7ffb      	ldrb	r3, [r7, #31]
 8002b1a:	4618      	mov	r0, r3
 8002b1c:	3720      	adds	r7, #32
 8002b1e:	46bd      	mov	sp, r7
 8002b20:	bd80      	pop	{r7, pc}
 8002b22:	bf00      	nop
 8002b24:	efff69f3 	.word	0xefff69f3
 8002b28:	40013800 	.word	0x40013800
 8002b2c:	40004400 	.word	0x40004400
 8002b30:	40004800 	.word	0x40004800

08002b34 <LL_InitTick>:
 8002b34:	b480      	push	{r7}
 8002b36:	b083      	sub	sp, #12
 8002b38:	af00      	add	r7, sp, #0
 8002b3a:	6078      	str	r0, [r7, #4]
 8002b3c:	6039      	str	r1, [r7, #0]
 8002b3e:	687a      	ldr	r2, [r7, #4]
 8002b40:	683b      	ldr	r3, [r7, #0]
 8002b42:	fbb2 f3f3 	udiv	r3, r2, r3
 8002b46:	4a07      	ldr	r2, [pc, #28]	; (8002b64 <LL_InitTick+0x30>)
 8002b48:	3b01      	subs	r3, #1
 8002b4a:	6053      	str	r3, [r2, #4]
 8002b4c:	4b05      	ldr	r3, [pc, #20]	; (8002b64 <LL_InitTick+0x30>)
 8002b4e:	2200      	movs	r2, #0
 8002b50:	609a      	str	r2, [r3, #8]
 8002b52:	4b04      	ldr	r3, [pc, #16]	; (8002b64 <LL_InitTick+0x30>)
 8002b54:	2205      	movs	r2, #5
 8002b56:	601a      	str	r2, [r3, #0]
 8002b58:	bf00      	nop
 8002b5a:	370c      	adds	r7, #12
 8002b5c:	46bd      	mov	sp, r7
 8002b5e:	f85d 7b04 	ldr.w	r7, [sp], #4
 8002b62:	4770      	bx	lr
 8002b64:	e000e010 	.word	0xe000e010

08002b68 <LL_Init1msTick>:
 8002b68:	b580      	push	{r7, lr}
 8002b6a:	b082      	sub	sp, #8
 8002b6c:	af00      	add	r7, sp, #0
 8002b6e:	6078      	str	r0, [r7, #4]
 8002b70:	f44f 717a 	mov.w	r1, #1000	; 0x3e8
 8002b74:	6878      	ldr	r0, [r7, #4]
 8002b76:	f7ff ffdd 	bl	8002b34 <LL_InitTick>
 8002b7a:	bf00      	nop
 8002b7c:	3708      	adds	r7, #8
 8002b7e:	46bd      	mov	sp, r7
 8002b80:	bd80      	pop	{r7, pc}
	...

08002b84 <LL_SetSystemCoreClock>:
 8002b84:	b480      	push	{r7}
 8002b86:	b083      	sub	sp, #12
 8002b88:	af00      	add	r7, sp, #0
 8002b8a:	6078      	str	r0, [r7, #4]
 8002b8c:	4a04      	ldr	r2, [pc, #16]	; (8002ba0 <LL_SetSystemCoreClock+0x1c>)
 8002b8e:	687b      	ldr	r3, [r7, #4]
 8002b90:	6013      	str	r3, [r2, #0]
 8002b92:	bf00      	nop
 8002b94:	370c      	adds	r7, #12
 8002b96:	46bd      	mov	sp, r7
 8002b98:	f85d 7b04 	ldr.w	r7, [sp], #4
 8002b9c:	4770      	bx	lr
 8002b9e:	bf00      	nop
 8002ba0:	20000000 	.word	0x20000000

08002ba4 <atoi>:
 8002ba4:	220a      	movs	r2, #10
 8002ba6:	2100      	movs	r1, #0
 8002ba8:	f000 b8d6 	b.w	8002d58 <strtol>

08002bac <__errno>:
 8002bac:	4b01      	ldr	r3, [pc, #4]	; (8002bb4 <__errno+0x8>)
 8002bae:	6818      	ldr	r0, [r3, #0]
 8002bb0:	4770      	bx	lr
 8002bb2:	bf00      	nop
 8002bb4:	20000004 	.word	0x20000004

08002bb8 <__libc_init_array>:
 8002bb8:	b570      	push	{r4, r5, r6, lr}
 8002bba:	4d0d      	ldr	r5, [pc, #52]	; (8002bf0 <__libc_init_array+0x38>)
 8002bbc:	4c0d      	ldr	r4, [pc, #52]	; (8002bf4 <__libc_init_array+0x3c>)
 8002bbe:	1b64      	subs	r4, r4, r5
 8002bc0:	10a4      	asrs	r4, r4, #2
 8002bc2:	2600      	movs	r6, #0
 8002bc4:	42a6      	cmp	r6, r4
 8002bc6:	d109      	bne.n	8002bdc <__libc_init_array+0x24>
 8002bc8:	4d0b      	ldr	r5, [pc, #44]	; (8002bf8 <__libc_init_array+0x40>)
 8002bca:	4c0c      	ldr	r4, [pc, #48]	; (8002bfc <__libc_init_array+0x44>)
 8002bcc:	f000 f8ce 	bl	8002d6c <_init>
 8002bd0:	1b64      	subs	r4, r4, r5
 8002bd2:	10a4      	asrs	r4, r4, #2
 8002bd4:	2600      	movs	r6, #0
 8002bd6:	42a6      	cmp	r6, r4
 8002bd8:	d105      	bne.n	8002be6 <__libc_init_array+0x2e>
 8002bda:	bd70      	pop	{r4, r5, r6, pc}
 8002bdc:	f855 3b04 	ldr.w	r3, [r5], #4
 8002be0:	4798      	blx	r3
 8002be2:	3601      	adds	r6, #1
 8002be4:	e7ee      	b.n	8002bc4 <__libc_init_array+0xc>
 8002be6:	f855 3b04 	ldr.w	r3, [r5], #4
 8002bea:	4798      	blx	r3
 8002bec:	3601      	adds	r6, #1
 8002bee:	e7f2      	b.n	8002bd6 <__libc_init_array+0x1e>
 8002bf0:	08002ed0 	.word	0x08002ed0
 8002bf4:	08002ed0 	.word	0x08002ed0
 8002bf8:	08002ed0 	.word	0x08002ed0
 8002bfc:	08002ed4 	.word	0x08002ed4

08002c00 <memset>:
 8002c00:	4402      	add	r2, r0
 8002c02:	4603      	mov	r3, r0
 8002c04:	4293      	cmp	r3, r2
 8002c06:	d100      	bne.n	8002c0a <memset+0xa>
 8002c08:	4770      	bx	lr
 8002c0a:	f803 1b01 	strb.w	r1, [r3], #1
 8002c0e:	e7f9      	b.n	8002c04 <memset+0x4>

08002c10 <strcpy>:
 8002c10:	4603      	mov	r3, r0
 8002c12:	f811 2b01 	ldrb.w	r2, [r1], #1
 8002c16:	f803 2b01 	strb.w	r2, [r3], #1
 8002c1a:	2a00      	cmp	r2, #0
 8002c1c:	d1f9      	bne.n	8002c12 <strcpy+0x2>
 8002c1e:	4770      	bx	lr

08002c20 <strstr>:
 8002c20:	b5f0      	push	{r4, r5, r6, r7, lr}
 8002c22:	780c      	ldrb	r4, [r1, #0]
 8002c24:	b164      	cbz	r4, 8002c40 <strstr+0x20>
 8002c26:	4603      	mov	r3, r0
 8002c28:	781a      	ldrb	r2, [r3, #0]
 8002c2a:	4618      	mov	r0, r3
 8002c2c:	1c5e      	adds	r6, r3, #1
 8002c2e:	b90a      	cbnz	r2, 8002c34 <strstr+0x14>
 8002c30:	4610      	mov	r0, r2
 8002c32:	e005      	b.n	8002c40 <strstr+0x20>
 8002c34:	4294      	cmp	r4, r2
 8002c36:	d108      	bne.n	8002c4a <strstr+0x2a>
 8002c38:	460d      	mov	r5, r1
 8002c3a:	f815 2f01 	ldrb.w	r2, [r5, #1]!
 8002c3e:	b902      	cbnz	r2, 8002c42 <strstr+0x22>
 8002c40:	bdf0      	pop	{r4, r5, r6, r7, pc}
 8002c42:	f813 7f01 	ldrb.w	r7, [r3, #1]!
 8002c46:	4297      	cmp	r7, r2
 8002c48:	d0f7      	beq.n	8002c3a <strstr+0x1a>
 8002c4a:	4633      	mov	r3, r6
 8002c4c:	e7ec      	b.n	8002c28 <strstr+0x8>
	...

08002c50 <_strtol_l.isra.0>:
 8002c50:	2b01      	cmp	r3, #1
 8002c52:	e92d 47f0 	stmdb	sp!, {r4, r5, r6, r7, r8, r9, sl, lr}
 8002c56:	d001      	beq.n	8002c5c <_strtol_l.isra.0+0xc>
 8002c58:	2b24      	cmp	r3, #36	; 0x24
 8002c5a:	d906      	bls.n	8002c6a <_strtol_l.isra.0+0x1a>
 8002c5c:	f7ff ffa6 	bl	8002bac <__errno>
 8002c60:	2316      	movs	r3, #22
 8002c62:	6003      	str	r3, [r0, #0]
 8002c64:	2000      	movs	r0, #0
 8002c66:	e8bd 87f0 	ldmia.w	sp!, {r4, r5, r6, r7, r8, r9, sl, pc}
 8002c6a:	4f3a      	ldr	r7, [pc, #232]	; (8002d54 <_strtol_l.isra.0+0x104>)
 8002c6c:	468e      	mov	lr, r1
 8002c6e:	4676      	mov	r6, lr
 8002c70:	f81e 4b01 	ldrb.w	r4, [lr], #1
 8002c74:	5de5      	ldrb	r5, [r4, r7]
 8002c76:	f015 0508 	ands.w	r5, r5, #8
 8002c7a:	d1f8      	bne.n	8002c6e <_strtol_l.isra.0+0x1e>
 8002c7c:	2c2d      	cmp	r4, #45	; 0x2d
 8002c7e:	d134      	bne.n	8002cea <_strtol_l.isra.0+0x9a>
 8002c80:	f89e 4000 	ldrb.w	r4, [lr]
 8002c84:	f04f 0801 	mov.w	r8, #1
 8002c88:	f106 0e02 	add.w	lr, r6, #2
 8002c8c:	2b00      	cmp	r3, #0
 8002c8e:	d05c      	beq.n	8002d4a <_strtol_l.isra.0+0xfa>
 8002c90:	2b10      	cmp	r3, #16
 8002c92:	d10c      	bne.n	8002cae <_strtol_l.isra.0+0x5e>
 8002c94:	2c30      	cmp	r4, #48	; 0x30
 8002c96:	d10a      	bne.n	8002cae <_strtol_l.isra.0+0x5e>
 8002c98:	f89e 4000 	ldrb.w	r4, [lr]
 8002c9c:	f004 04df 	and.w	r4, r4, #223	; 0xdf
 8002ca0:	2c58      	cmp	r4, #88	; 0x58
 8002ca2:	d14d      	bne.n	8002d40 <_strtol_l.isra.0+0xf0>
 8002ca4:	f89e 4001 	ldrb.w	r4, [lr, #1]
 8002ca8:	2310      	movs	r3, #16
 8002caa:	f10e 0e02 	add.w	lr, lr, #2
 8002cae:	f108 4c00 	add.w	ip, r8, #2147483648	; 0x80000000
 8002cb2:	f10c 3cff 	add.w	ip, ip, #4294967295
 8002cb6:	2600      	movs	r6, #0
 8002cb8:	fbbc f9f3 	udiv	r9, ip, r3
 8002cbc:	4635      	mov	r5, r6
 8002cbe:	fb03 ca19 	mls	sl, r3, r9, ip
 8002cc2:	f1a4 0730 	sub.w	r7, r4, #48	; 0x30
 8002cc6:	2f09      	cmp	r7, #9
 8002cc8:	d818      	bhi.n	8002cfc <_strtol_l.isra.0+0xac>
 8002cca:	463c      	mov	r4, r7
 8002ccc:	42a3      	cmp	r3, r4
 8002cce:	dd24      	ble.n	8002d1a <_strtol_l.isra.0+0xca>
 8002cd0:	2e00      	cmp	r6, #0
 8002cd2:	db1f      	blt.n	8002d14 <_strtol_l.isra.0+0xc4>
 8002cd4:	45a9      	cmp	r9, r5
 8002cd6:	d31d      	bcc.n	8002d14 <_strtol_l.isra.0+0xc4>
 8002cd8:	d101      	bne.n	8002cde <_strtol_l.isra.0+0x8e>
 8002cda:	45a2      	cmp	sl, r4
 8002cdc:	db1a      	blt.n	8002d14 <_strtol_l.isra.0+0xc4>
 8002cde:	fb05 4503 	mla	r5, r5, r3, r4
 8002ce2:	2601      	movs	r6, #1
 8002ce4:	f81e 4b01 	ldrb.w	r4, [lr], #1
 8002ce8:	e7eb      	b.n	8002cc2 <_strtol_l.isra.0+0x72>
 8002cea:	2c2b      	cmp	r4, #43	; 0x2b
 8002cec:	bf08      	it	eq
 8002cee:	f89e 4000 	ldrbeq.w	r4, [lr]
 8002cf2:	46a8      	mov	r8, r5
 8002cf4:	bf08      	it	eq
 8002cf6:	f106 0e02 	addeq.w	lr, r6, #2
 8002cfa:	e7c7      	b.n	8002c8c <_strtol_l.isra.0+0x3c>
 8002cfc:	f1a4 0741 	sub.w	r7, r4, #65	; 0x41
 8002d00:	2f19      	cmp	r7, #25
 8002d02:	d801      	bhi.n	8002d08 <_strtol_l.isra.0+0xb8>
 8002d04:	3c37      	subs	r4, #55	; 0x37
 8002d06:	e7e1      	b.n	8002ccc <_strtol_l.isra.0+0x7c>
 8002d08:	f1a4 0761 	sub.w	r7, r4, #97	; 0x61
 8002d0c:	2f19      	cmp	r7, #25
 8002d0e:	d804      	bhi.n	8002d1a <_strtol_l.isra.0+0xca>
 8002d10:	3c57      	subs	r4, #87	; 0x57
 8002d12:	e7db      	b.n	8002ccc <_strtol_l.isra.0+0x7c>
 8002d14:	f04f 36ff 	mov.w	r6, #4294967295
 8002d18:	e7e4      	b.n	8002ce4 <_strtol_l.isra.0+0x94>
 8002d1a:	2e00      	cmp	r6, #0
 8002d1c:	da05      	bge.n	8002d2a <_strtol_l.isra.0+0xda>
 8002d1e:	2322      	movs	r3, #34	; 0x22
 8002d20:	6003      	str	r3, [r0, #0]
 8002d22:	4665      	mov	r5, ip
 8002d24:	b942      	cbnz	r2, 8002d38 <_strtol_l.isra.0+0xe8>
 8002d26:	4628      	mov	r0, r5
 8002d28:	e79d      	b.n	8002c66 <_strtol_l.isra.0+0x16>
 8002d2a:	f1b8 0f00 	cmp.w	r8, #0
 8002d2e:	d000      	beq.n	8002d32 <_strtol_l.isra.0+0xe2>
 8002d30:	426d      	negs	r5, r5
 8002d32:	2a00      	cmp	r2, #0
 8002d34:	d0f7      	beq.n	8002d26 <_strtol_l.isra.0+0xd6>
 8002d36:	b10e      	cbz	r6, 8002d3c <_strtol_l.isra.0+0xec>
 8002d38:	f10e 31ff 	add.w	r1, lr, #4294967295
 8002d3c:	6011      	str	r1, [r2, #0]
 8002d3e:	e7f2      	b.n	8002d26 <_strtol_l.isra.0+0xd6>
 8002d40:	2430      	movs	r4, #48	; 0x30
 8002d42:	2b00      	cmp	r3, #0
 8002d44:	d1b3      	bne.n	8002cae <_strtol_l.isra.0+0x5e>
 8002d46:	2308      	movs	r3, #8
 8002d48:	e7b1      	b.n	8002cae <_strtol_l.isra.0+0x5e>
 8002d4a:	2c30      	cmp	r4, #48	; 0x30
 8002d4c:	d0a4      	beq.n	8002c98 <_strtol_l.isra.0+0x48>
 8002d4e:	230a      	movs	r3, #10
 8002d50:	e7ad      	b.n	8002cae <_strtol_l.isra.0+0x5e>
 8002d52:	bf00      	nop
 8002d54:	08002dd0 	.word	0x08002dd0

08002d58 <strtol>:
 8002d58:	4613      	mov	r3, r2
 8002d5a:	460a      	mov	r2, r1
 8002d5c:	4601      	mov	r1, r0
 8002d5e:	4802      	ldr	r0, [pc, #8]	; (8002d68 <strtol+0x10>)
 8002d60:	6800      	ldr	r0, [r0, #0]
 8002d62:	f7ff bf75 	b.w	8002c50 <_strtol_l.isra.0>
 8002d66:	bf00      	nop
 8002d68:	20000004 	.word	0x20000004

08002d6c <_init>:
 8002d6c:	b5f8      	push	{r3, r4, r5, r6, r7, lr}
 8002d6e:	bf00      	nop
 8002d70:	bcf8      	pop	{r3, r4, r5, r6, r7}
 8002d72:	bc08      	pop	{r3}
 8002d74:	469e      	mov	lr, r3
 8002d76:	4770      	bx	lr

08002d78 <_fini>:
 8002d78:	b5f8      	push	{r3, r4, r5, r6, r7, lr}
 8002d7a:	bf00      	nop
 8002d7c:	bcf8      	pop	{r3, r4, r5, r6, r7}
 8002d7e:	bc08      	pop	{r3}
 8002d80:	469e      	mov	lr, r3
 8002d82:	4770      	bx	lr
